Archive member included because of file (symbol)

../bwlib\libusbh.a(hal_usb_host_enum.o)
                              ./Debug/usensor_237a_1.c.o (exmand)
../bwlib\libsd.a(ax32xx_sd.o)
                              ./Debug/src_hal_sd.c.o (ax32xx_sd0Init)
../bwlib\libavi.a(aviEncoder.o)
                              ./Debug/video_video_record.c.o (aviEncodeInit)
../bwlib\libavi.a(encoder_std.o)
                              ../bwlib\libavi.a(aviEncoder.o) (avi_encoder_std)
../bwlib\libavi.a(encoder_odml.o)
                              ../bwlib\libavi.a(aviEncoder.o) (avi_odmlAddoffset)
../bwlib\libavi.a(aviDecoder.o)
                              ./Debug/video_video_playback.c.o (aviDecodeInit)
../bwlib\libavi.a(decoder_std.o)
                              ../bwlib\libavi.a(aviDecoder.o) (avi_standard)
../bwlib\libavi.a(decoder_odml.o)
                              ../bwlib\libavi.a(aviDecoder.o) (avi_opendml)
../bwlib\libfs.a(fs.o)        ./Debug/taskSysScanDevice.c.o (fs_nodeinit)
../bwlib\libfs.a(diskio.o)    ./Debug/main.c.o (fs_init)
../bwlib\libfs.a(ff.o)        ../bwlib\libfs.a(fs.o) (clst2sect)
../bwlib\libfs.a(ffunicode.o)
                              ../bwlib\libfs.a(ff.o) (ff_uni2oem)
C:/MinGW-4.7.1/or1k-elf/lib/no-delay\libc.a(lib_a-memcpy.o)
                              ./Debug/resource_manager.c.o (memcpy)
C:/MinGW-4.7.1/or1k-elf/lib/no-delay\libc.a(lib_a-memset.o)
                              ./Debug/main.c.o (memset)
C:/MinGW-4.7.1/or1k-elf/lib/no-delay\libc.a(lib_a-strcat.o)
                              ./Debug/resource_manager.c.o (strcat)
C:/MinGW-4.7.1/or1k-elf/lib/no-delay\libc.a(lib_a-strcmp.o)
                              ./Debug/resource_manager.c.o (strcmp)
C:/MinGW-4.7.1/or1k-elf/lib/no-delay\libc.a(lib_a-strcpy.o)
                              ./Debug/resource_manager.c.o (strcpy)
C:/MinGW-4.7.1/or1k-elf/lib/no-delay\libc.a(lib_a-strlen.o)
                              ./Debug/resource_manager.c.o (strlen)
C:/MinGW-4.7.1/or1k-elf/lib/no-delay\libc.a(lib_a-strncmp.o)
                              ./Debug/resource_manager.c.o (strncmp)
C:/MinGW-4.7.1/or1k-elf/lib/no-delay\libc.a(lib_a-strncpy.o)
                              ./Debug/taskAudioRecordMsg.c.o (strncpy)
C:/MinGW-4.7.1/lib/gcc/or1k-elf/4.9.1/no-delay\libgcc.a(_udivdi3.o)
                              ../bwlib\libfs.a(ff.o) (__udivdi3)
C:/MinGW-4.7.1/lib/gcc/or1k-elf/4.9.1/no-delay\libgcc.a(__udivsi3.o)
                              C:/MinGW-4.7.1/lib/gcc/or1k-elf/4.9.1/no-delay\libgcc.a(_udivdi3.o) (__udivsi3)
C:/MinGW-4.7.1/lib/gcc/or1k-elf/4.9.1/no-delay\libgcc.a(__umodsi3.o)
                              C:/MinGW-4.7.1/lib/gcc/or1k-elf/4.9.1/no-delay\libgcc.a(_udivdi3.o) (__umodsi3)
C:/MinGW-4.7.1/lib/gcc/or1k-elf/4.9.1/no-delay\libgcc.a(_clz.o)
                              C:/MinGW-4.7.1/lib/gcc/or1k-elf/4.9.1/no-delay\libgcc.a(_udivdi3.o) (__clz_tab)

Allocating common symbols
Common symbol       size              file

fp_jpegdc_ldone_hal
                    0x4               ./Debug/mjpeg_ax32xx_mjpeg.c.o
mscstack            0xc               ./Debug/husb_hal_usb_host_tpbulk.c.o
uvcisp              0x804             ./Debug/logo.c.o
fp_tmnow            0x4               ../bwlib\libfs.a(diskio.o)
fp_storage_wr       0x4               ../bwlib\libfs.a(diskio.o)
fp11_epout_isr_hal  0x4               ./Debug/main.c.o
jpegCache           0x4               ./Debug/multimedia_user_media.c.o
fp_stat_isr         0x4               ./Debug/isp_hal_isp.c.o
info_buf            0x37              ./Debug/taskSysScanDevice.c.o
fp_ae_isr           0x4               ./Debug/isp_hal_isp.c.o
usb_varm            0x1c              ./Debug/main.c.o
WAV_TYPE_E          0x4               ./Debug/main.c.o
fp_uvc_off_hal      0x4               ./Debug/dusb_hal_usb_dev_enum.c.o
dev                 0x12              ../bwlib\libusbh.a(hal_usb_host_enum.o)
SysCtrl             0x5c              ./Debug/main.c.o
audsIStack          0xc               ./Debug/multimedia_user_media.c.o
jpegBStack          0x8               ./Debug/multimedia_user_media.c.o
jBLbuf              0x70800           ./Debug/husb_hal_usensor.c.o
fp_epout_isr_hal    0x4               ./Debug/main.c.o
tempFileName2       0x1c              ./Debug/taskVideoRecord.c.o
audioCache          0x4               ./Debug/multimedia_user_media.c.o
diskhal             0x48              ./Debug/husb_hal_usb_host_tpbulk.c.o
fp11_host_connect_hal
                    0x4               ./Debug/src_ax32xx_usb.c.o
filetime            0x1               ./Debug/taskSysScanDevice.c.o
fp_uvc_on_hal       0x4               ./Debug/dusb_hal_usb_dev_enum.c.o
pcm_buf             0x4               ./Debug/src_hal_auadc.c.o
mediaVideoCtrlB     0x84              ./Debug/main.c.o
uac_onflg           0x1               ./Debug/dusb_hal_usb_dev_enum.c.o
aviIdx1CacheB       0x4               ./Debug/multimedia_user_media.c.o
usbsta              0x6               ../bwlib\libusbh.a(hal_usb_host_enum.o)
usb_type            0x1               ./Debug/main.c.o
jbecsta             0x1               ./Debug/src_hal_mjpegB.c.o
scsi                0x18              ./Debug/dusb_hal_usb_msc.c.o
tempFileName1       0x1c              ./Debug/taskVideoRecord.c.o
usb_rqu             0x8               ./Debug/dusb_hal_usb_dev_enum.c.o
version_str         0x20              ./Debug/logo.c.o
p_enp               0x4               ./Debug/main.c.o
fp_disk_rd          0x4               ./Debug/dusb_hal_usb_msc.c.o
sofcnt              0x2               ./Debug/src_ax32xx_usb.c.o
ispstat             0x8c0             ./Debug/src_ax32xx_isp.c.o
fp_sensor_exposure  0x4               ./Debug/isp_hal_isp.c.o
resolution          0x1               ./Debug/taskSysScanDevice.c.o
UacSampFreq         0x3               ./Debug/dusb_hal_usb_uac.c.o
audsTStack          0xc               ./Debug/multimedia_user_media.c.o
busy                0x4               ../bwlib\libusbh.a(hal_usb_host_enum.o)
u_dev               0x8               ./Debug/main.c.o
jbdcsta             0x1               ./Debug/husb_hal_usensor.c.o
fp_disk_cap         0x4               ./Debug/dusb_hal_usb_msc.c.o
ptgl                0x4               ./Debug/dusb_hal_usb_uvc.c.o
fp_uac_on_hal       0x4               ./Debug/dusb_hal_usb_dev_enum.c.o
rtcSecondISR        0x4               ./Debug/src_ax32xx_rtc.c.o
isp                 0x3c              ./Debug/src_ax32xx_isp.c.o
udev                0x18              ./Debug/main.c.o
pfun                0x4               ../bwlib\libusbh.a(hal_usb_host_enum.o)
fp_host_remove_hal  0x4               ./Debug/src_ax32xx_usb.c.o
ax32xx_lcdISR       0x14              ./Debug/lcd_ax32xx_lcd.c.o
fp11_host_remove_hal
                    0x4               ./Debug/src_ax32xx_usb.c.o
fp_disk_online      0x4               ./Debug/dusb_hal_usb_msc.c.o
recycle             0x1               ./Debug/taskSysScanDevice.c.o
p_dev               0x4               ./Debug/main.c.o
fp_usb_bulk_tx      0x4               ./Debug/dusb_hal_usb_msc.c.o
fp_disk_stop        0x4               ./Debug/dusb_hal_usb_msc.c.o
rtcAlamISR          0x4               ./Debug/src_ax32xx_rtc.c.o
usb_host_type       0x1               ./Debug/main.c.o
edpt                0x80              ../bwlib\libusbh.a(hal_usb_host_enum.o)
fp_mjpBcodec_linking
                    0x4               ./Debug/husb_hal_usensor.c.o
audiobuff           0x8000            ./Debug/main.c.o
uaconflg            0x1               ./Debug/dusb_hal_usb_uac.c.o
phusbfun            0x200             ../bwlib\libusbh.a(hal_usb_host_enum.o)
fp_usb_bulk_rx      0x4               ./Debug/dusb_hal_usb_msc.c.o
backrecadpt         0xc               ./Debug/husb_hal_usensor.c.o
iicpr               0x4               ../bwlib\libusbh.a(hal_usb_host_enum.o)
uisp                0x1c              ../bwlib\libusbh.a(hal_usb_host_enum.o)
exmand              0x1c              ../bwlib\libusbh.a(hal_usb_host_enum.o)
using_contrast      0x100             ./Debug/src_ax32xx_isp.c.o
tpbulk_block        0x40              ./Debug/main.c.o
vidsBStack          0x14              ./Debug/multimedia_user_media.c.o
block_scaler_tab    0x60              ./Debug/mjpeg_ax32xx_mjpeg.c.o
jpegIStack          0x8               ./Debug/multimedia_user_media.c.o
uvchal              0xc               ./Debug/husb_hal_usb_host_uvc.c.o
uvc                 0x10              ../bwlib\libusbh.a(hal_usb_host_enum.o)
usb_dev             0x1c              ./Debug/dusb_hal_usb_dev_enum.c.o
fp_disk_busy        0x4               ./Debug/dusb_hal_usb_msc.c.o
devSensor_Cmd       0xc5c             ./Debug/cmos_sensor_cmos_sensor.c.o
mscbusy             0x1               ./Debug/src_ax32xx_usb.c.o
fp_usb_isr          0x4               ./Debug/src_ax32xx_int.c.o
intfs               0x90              ../bwlib\libusbh.a(hal_usb_host_enum.o)
uvc_fstack          0x14              ./Debug/husb_hal_usb_host_uvc.c.o
fBcnt               0x4               ./Debug/src_hal_mjpegB.c.o
fp_uac_unit_ctl_hal
                    0x4               ./Debug/main.c.o
cfg                 0xa               ../bwlib\libusbh.a(hal_usb_host_enum.o)
lsc_tab             0x478             ./Debug/src_ax32xx_isp.c.o
auadcbuff           0x2000            ./Debug/src_hal_auadc.c.o
XOSNesting          0x1               ./Debug/xos_xos.c.o
fp_f_write          0x4               ../bwlib\libfs.a(diskio.o)
audsBStack          0xc               ./Debug/multimedia_user_media.c.o
fp_storage_sta      0x4               ../bwlib\libfs.a(diskio.o)
smph_dmacopy        0x1               ./Debug/src_ax32xx_sys.c.o
snser               0x14              ./Debug/src_hal_csi.c.o
RGB_GMMA            0x300             ./Debug/src_ax32xx_isp.c.o
pSetReqCallback     0x4               ./Debug/dusb_hal_usb_dev_enum.c.o
usb_dev_addr        0x1               ./Debug/main.c.o
fp_UacHandleToStreaming
                    0x4               ./Debug/main.c.o
fp_usb_ep0_tx       0x4               ./Debug/dusb_hal_usb_uvc.c.o
thumbnailUVBuffer   0x4               ./Debug/multimedia_user_media.c.o
desc                0x800             ../bwlib\libusbh.a(hal_usb_host_enum.o)
time                0x1               ./Debug/taskSysScanDevice.c.o
usensor_jid         0x4               ./Debug/src_hal_mjpegB.c.o
fp_uac_off_hal      0x4               ./Debug/dusb_hal_usb_dev_enum.c.o
fp_storage_rd       0x4               ../bwlib\libfs.a(diskio.o)
setup_pkt           0x8               ./Debug/main.c.o
javgsize            0x4               ./Debug/mjpeg_ax32xx_mjpeg.c.o
pcommit             0x40              ../bwlib\libusbh.a(hal_usb_host_enum.o)
fp_disk_free        0x4               ./Debug/dusb_hal_usb_msc.c.o
UacMuteControl      0x1               ./Debug/dusb_hal_usb_uac.c.o
fp_disk_wr          0x4               ./Debug/dusb_hal_usb_msc.c.o
jBavgsize           0x4               ./Debug/src_hal_mjpegB.c.o
fp_uvc_probe_ctl_hal
                    0x4               ./Debug/dusb_hal_usb_uvc.c.o
strHandle           0x4               ./Debug/upgrade.c.o
debg_jdec           0x1               ./Debug/husb_hal_usensor.c.o
pkt_per_sec         0x1               ./Debug/main.c.o
speed               0x4               ./Debug/src_hal_sd.c.o
aviIdx1Cache        0x4               ./Debug/multimedia_user_media.c.o
dfm                 0x2f8             ./Debug/src_hal_lcdframe.c.o
commit              0x1c              ./Debug/main.c.o
Y_GMA               0x200             ./Debug/src_ax32xx_isp.c.o
fp_uvc_unit_ctl_ex_hal
                    0x4               ./Debug/dusb_hal_usb_uvc.c.o
EP0WaitForSetReqData
                    0x1               ./Debug/main.c.o
backstabuf          0x4               ../bwlib\libusbh.a(hal_usb_host_enum.o)
timerISR            0x10              ./Debug/src_ax32xx_timer.c.o
fp_host11_remove_hal
                    0x4               ./Debug/src_ax32xx_usb.c.o
fp_usb11_isr        0x4               ./Debug/src_ax32xx_int.c.o
fp_host11_connect_hal
                    0x4               ./Debug/src_ax32xx_usb.c.o
progressBar         0x4               ./Debug/upgrade.c.o
fp_awb_isr          0x4               ./Debug/isp_hal_isp.c.o
p_ifc               0x4               ./Debug/main.c.o
sensor_id           0x4               ../bwlib\libusbh.a(hal_usb_host_enum.o)
devSensor_Ident     0x50              ./Debug/cmos_sensor_cmos_sensor.c.o
csifcnt             0x4               ./Debug/csi_ax32xx_csi.c.o
motion              0x1               ./Debug/taskSysScanDevice.c.o
thumbnailYBuffer    0x4               ./Debug/multimedia_user_media.c.o
wdt_en              0x4               ./Debug/src_ax32xx_wdt.c.o
vidsIStack          0x14              ./Debug/multimedia_user_media.c.o
fp_usb_iso_tx       0x4               ./Debug/dusb_hal_usb_uvc.c.o
uvc_onflg           0x1               ./Debug/dusb_hal_usb_dev_enum.c.o
usb_var             0x3               ./Debug/main.c.o
p_cfg               0x4               ./Debug/main.c.o
fp_host_connect_hal
                    0x4               ./Debug/src_ax32xx_usb.c.o
fp_uvc_unit_ctl_hal
                    0x4               ./Debug/dusb_hal_usb_uvc.c.o
fp_storage_init     0x4               ../bwlib\libfs.a(diskio.o)
isostack            0x10              ./Debug/main.c.o
mediaVideoCtrl      0x84              ./Debug/main.c.o
UacVolCtrlSettings  0x8               ./Debug/dusb_hal_usb_uac.c.o
MscCmd              0x44              ./Debug/dusb_hal_usb_msc.c.o
usbstack            0x10              ./Debug/main.c.o
CHANNEL_EXCHANGE_E  0x4               ./Debug/main.c.o
msc                 0xe               ../bwlib\libusbh.a(hal_usb_host_enum.o)

Memory Configuration

Name             Origin             Length             Attributes
boot             0x01fffc00         0x00000200
ram_boot         0x00000000         0x00005000
ram_user         0x00000000         0x00005000
usbfifo          0x00008000         0x00001000
sdram            0x02000000         0x00800000
exsdram          0x00000000         0x00800000
*default*        0x00000000         0xffffffff

Linker script and memory map

LOAD ./Debug/ax32xx_reset.S.o
LOAD ./Debug/ax32xx_spi_boot_cfg.S.o
LOAD ./Debug/ax32xx_BLDRX32.S.o
LOAD ./Debug/main.c.o
LOAD ./Debug/resource_manager.c.o
LOAD ./Debug/upgrade.c.o
LOAD ./Debug/board.c.o
LOAD ./Debug/board_bwv1.c.o
LOAD ./Debug/config.c.o
LOAD ./Debug/display.c.o
LOAD ./Debug/explorer.c.o
LOAD ./Debug/filelist.c.o
LOAD ./Debug/font.c.o
LOAD ./Debug/icon.c.o
LOAD ./Debug/board_fpga.c.o
LOAD ./Debug/configGetValue.c.o
LOAD ./Debug/configSystem.c.o
LOAD ./Debug/logo.c.o
LOAD ./Debug/menuMovieRec.c.o
LOAD ./Debug/menuPlayBack.c.o
LOAD ./Debug/msgDeal.c.o
LOAD ./Debug/msgSysRecommend.c.o
LOAD ./Debug/msgSysUnshielded.c.o
LOAD ./Debug/taskManage.c.o
LOAD ./Debug/taskPhotoEncode.c.o
LOAD ./Debug/taskPhotoEncodeMsg.c.o
LOAD ./Debug/taskPlayBack.c.o
LOAD ./Debug/taskPlayBackMsg.c.o
LOAD ./Debug/taskPowerOff.c.o
LOAD ./Debug/taskSysScanDevice.c.o
LOAD ./Debug/taskUsbDevice.c.o
LOAD ./Debug/taskVideoRecord.c.o
LOAD ./Debug/taskVideoRecordMsg.c.o
LOAD ./Debug/toolFunc.c.o
LOAD ./Debug/uiAsternMsg.c.o
LOAD ./Debug/uiMenuDateTimeMsg.c.o
LOAD ./Debug/uiMenuDefaultMsg.c.o
LOAD ./Debug/uiMenuDelAllMsg.c.o
LOAD ./Debug/uiMenuDelCurMsg.c.o
LOAD ./Debug/uiMenuFormatMsg.c.o
LOAD ./Debug/uiMenuItemMsg.c.o
LOAD ./Debug/uiMenuLockCurMsg.c.o
LOAD ./Debug/uiMenuOptionMsg.c.o
LOAD ./Debug/uiMenuUnlockAllMsg.c.o
LOAD ./Debug/uiMenuUnlockCurMsg.c.o
LOAD ./Debug/uiMenuUsbMsg.c.o
LOAD ./Debug/uiNoFileMsg.c.o
LOAD ./Debug/uiTips1Msg.c.o
LOAD ./Debug/uiTipsMsg.c.o
LOAD ./Debug/uiWin.c.o
LOAD ./Debug/uiSelfTestMsg.c.o
LOAD ./Debug/uiMenuVersionMsg.c.o
LOAD ./Debug/taskAudioRecordMsg.c.o
LOAD ./Debug/taskAudioRecord.c.o
LOAD ./Debug/taskAudioPlay.c.o
LOAD ./Debug/taskAudioPlaydMsg.c.o
LOAD ./Debug/uiSelfClockMsg.c.o
LOAD ./Debug/uiMenuDelAllMsg2.c.o
LOAD ./Debug/uiMenuDelAllRes2.c.o
LOAD ./Debug/uiMenuDelCurMsg2.c.o
LOAD ./Debug/uiMenuDelCurRes2.c.o
LOAD ./Debug/xos_x_cpu.c.o
LOAD ./Debug/xos_xmbox.c.o
LOAD ./Debug/xos_xmsgq.c.o
LOAD ./Debug/xos_xos.c.o
LOAD ./Debug/xos_xwork.c.o
LOAD ./Debug/multimedia_user_media.c.o
LOAD ./Debug/sUI_button.c.o
LOAD ./Debug/sUI_dialog.c.o
LOAD ./Debug/sUI_frameWin.c.o
LOAD ./Debug/sUI_imageIcon.c.o
LOAD ./Debug/sUI_itemManage.c.o
LOAD ./Debug/sUI_menuItem.c.o
LOAD ./Debug/sUI_menuItemEx.c.o
LOAD ./Debug/sUI_menuOption.c.o
LOAD ./Debug/sUI_progressBar.c.o
LOAD ./Debug/sUI_rect.c.o
LOAD ./Debug/sUI_stringIcon.c.o
LOAD ./Debug/sUI_tips.c.o
LOAD ./Debug/sUI_uiAlloc.c.o
LOAD ./Debug/sUI_widget.c.o
LOAD ./Debug/sUI_winManage.c.o
LOAD ./Debug/sUI_memPool.c.o
LOAD ./Debug/src_ax32xx_int.c.o
LOAD ./Debug/src_ax32xx_sys.c.o
LOAD ./Debug/src_ax32xx_dma.c.o
LOAD ./Debug/src_ax32xx_wdt.c.o
LOAD ./Debug/src_ax32xx_gpio.c.o
LOAD ./Debug/src_ax32xx_uart.c.o
LOAD ./Debug/src_ax32xx_timer.c.o
LOAD ./Debug/src_ax32xx_tminf.c.o
LOAD ./Debug/src_ax32xx_spi.c.o
LOAD ./Debug/src_ax32xx_rtc.c.o
LOAD ./Debug/src_ax32xx_md.c.o
LOAD ./Debug/src_ax32xx_iic.c.o
LOAD ./Debug/src_ax32xx_dac.c.o
LOAD ./Debug/src_ax32xx_adc.c.o
LOAD ./Debug/src_ax32xx_auadc.c.o
LOAD ./Debug/src_ax32xx_isp.c.o
LOAD ./Debug/src_jpeg_table.c.o
LOAD ./Debug/src_isp_tab.c.o
LOAD ./Debug/src_ax32xx_usb.c.o
LOAD ./Debug/src_ax32xx_misc.c.o
LOAD ./Debug/src_ax32xx_pip.c.o
LOAD ./Debug/src_ax32xx_btuart.c.o
LOAD ./Debug/src_ax32xx_crc.c.o
LOAD ./Debug/src_ax32xx_emi.c.o
LOAD ./Debug/src_ax32xx_rotate.c.o
LOAD ./Debug/src_ax32xx_osdcmp.c.o
LOAD ./Debug/osd_ax32xx_osd.c.o
LOAD ./Debug/csi_ax32xx_csi.c.o
LOAD ./Debug/lcd_ax32xx_lcd.c.o
LOAD ./Debug/mjpeg_ax32xx_mjpeg.c.o
LOAD ./Debug/resource_user_icon.c.o
LOAD ./Debug/resource_user_str.c.o
LOAD ./Debug/src_hal_adc.c.o
LOAD ./Debug/src_hal_csi.c.o
LOAD ./Debug/src_hal_dac.c.o
LOAD ./Debug/src_hal_eeprom.c.o
LOAD ./Debug/src_hal_gpio.c.o
LOAD ./Debug/src_hal_iic.c.o
LOAD ./Debug/src_hal_lcd.c.o
LOAD ./Debug/src_hal_md.c.o
LOAD ./Debug/src_hal_osd.c.o
LOAD ./Debug/src_hal_rtc.c.o
LOAD ./Debug/src_hal_sd.c.o
LOAD ./Debug/src_hal_spi.c.o
LOAD ./Debug/src_hal_timer.c.o
LOAD ./Debug/src_hal_uart.c.o
LOAD ./Debug/src_hal_watermark.c.o
LOAD ./Debug/src_hal_sys.c.o
LOAD ./Debug/src_hal_auadc.c.o
LOAD ./Debug/src_hal_mjpeg.c.o
LOAD ./Debug/src_hal_int.c.o
LOAD ./Debug/src_hal_wdt.c.o
LOAD ./Debug/src_hal_stream.c.o
LOAD ./Debug/src_hal_emi.c.o
LOAD ./Debug/src_hal_mjpegB.c.o
LOAD ./Debug/src_hal_osdcmp.c.o
LOAD ./Debug/src_hal_rotate.c.o
LOAD ./Debug/src_hal_lcdframe.c.o
LOAD ./Debug/isp_hal_isp.c.o
LOAD ./Debug/dusb_hal_usb_api.c.o
LOAD ./Debug/dusb_hal_usb_dev_enum.c.o
LOAD ./Debug/dusb_hal_usb_msc.c.o
LOAD ./Debug/dusb_hal_usb_uac.c.o
LOAD ./Debug/dusb_hal_usb_uvc.c.o
LOAD ./Debug/husb_hal_usb_host_api.c.o
LOAD ./Debug/husb_hal_usb_host_tpbulk.c.o
LOAD ./Debug/husb_hal_usb_host_uvc.c.o
LOAD ./Debug/husb_hal_usensor.c.o
LOAD ./Debug/audio_audio_playback.c.o
LOAD ./Debug/audio_audio_record.c.o
LOAD ./Debug/audio_ring_buffer.c.o
LOAD ./Debug/video_video_playback.c.o
LOAD ./Debug/video_video_record.c.o
LOAD ./Debug/video_video_record_B.c.o
LOAD ./Debug/image_image_decode.c.o
LOAD ./Debug/image_image_encode.c.o
LOAD ./Debug/wav_alaw.c.o
LOAD ./Debug/wav_imaadpcm.c.o
LOAD ./Debug/wav_pcm.c.o
LOAD ./Debug/wav_ulaw.c.o
LOAD ./Debug/wav_wav.c.o
LOAD ./Debug/stream_stream.c.o
LOAD ./Debug/gsensor_G_gma301.c.o
LOAD ./Debug/gsensor_gsensor.c.o
LOAD ./Debug/gsensor_G_sc7a30e.c.o
LOAD ./Debug/gsensor_g_da380.c.o
LOAD ./Debug/cmos_sensor_cmos_sensor.c.o
LOAD ./Debug/cmos_sensor_SENSOR_BF3a03.c.o
LOAD ./Debug/cmos_sensor_SENSOR_BF2013.c.o
LOAD ./Debug/cmos_sensor_SENSOR_BF3016.c.o
LOAD ./Debug/cmos_sensor_SENSOR_BF3703.c.o
LOAD ./Debug/cmos_sensor_SENSOR_GC0307.c.o
LOAD ./Debug/cmos_sensor_SENSOR_GC0308.c.o
LOAD ./Debug/cmos_sensor_SENSOR_GC0309.c.o
LOAD ./Debug/cmos_sensor_SENSOR_GC0328.c.o
LOAD ./Debug/cmos_sensor_SENSOR_GC1004.c.o
LOAD ./Debug/cmos_sensor_SENSOR_H42.c.o
LOAD ./Debug/cmos_sensor_SENSOR_H7640.c.o
LOAD ./Debug/cmos_sensor_SENSOR_HM1055.c.o
LOAD ./Debug/cmos_sensor_SENSOR_IT03A1.c.o
LOAD ./Debug/cmos_sensor_SENSOR_NT99141.c.o
LOAD ./Debug/cmos_sensor_SENSOR_NT99142.c.o
LOAD ./Debug/cmos_sensor_SENSOR_OV7670.c.o
LOAD ./Debug/cmos_sensor_SENSOR_OV7725.c.o
LOAD ./Debug/cmos_sensor_SENSOR_OV9710.c.o
LOAD ./Debug/cmos_sensor_SENSOR_OV9732.c.o
LOAD ./Debug/cmos_sensor_SENSOR_SC1045.c.o
LOAD ./Debug/cmos_sensor_SENSOR_SIV100B.c.o
LOAD ./Debug/cmos_sensor_SENSOR_SIV120B.c.o
LOAD ./Debug/cmos_sensor_SENSOR_SIV121DS.c.o
LOAD ./Debug/cmos_sensor_SENSOR_SP1409.c.o
LOAD ./Debug/cmos_sensor_SENSOR_H62.c.o
LOAD ./Debug/cmos_sensor_SENSOR_GC1034.c.o
LOAD ./Debug/cmos_sensor_SENSOR_OV7736.c.o
LOAD ./Debug/cmos_sensor_SENSOR_SP140A.c.o
LOAD ./Debug/cmos_sensor_SENSOR_GC1054.c.o
LOAD ./Debug/cmos_sensor_SENSOR_GC1064.c.o
LOAD ./Debug/cmos_sensor_SENSOR_H65.c.o
LOAD ./Debug/cmos_sensor_SENSOR_SC1243.c.o
LOAD ./Debug/cmos_sensor_SENSOR_H63.c.o
LOAD ./Debug/cmos_sensor_SENSOR_H63P.c.o
LOAD ./Debug/tft_lcd_lcd_mcu_st7789.c.o
LOAD ./Debug/tft_lcd_lcd_rgb_jl_lcd.c.o
LOAD ./Debug/tft_lcd_lcd_rgb_st7282.c.o
LOAD ./Debug/tft_lcd_tft_lcd.c.o
LOAD ./Debug/tft_lcd_lcd_mcu_5420.c.o
LOAD ./Debug/tft_lcd_lcd_mcu_r61509v.c.o
LOAD ./Debug/tft_lcd_lcd_rgb_ili8961.c.o
LOAD ./Debug/tft_lcd_lcd_rgb_ili9342c.c.o
LOAD ./Debug/tft_lcd_lcd_mcu_ili9328.c.o
LOAD ./Debug/tft_lcd_lcd_mcu_hx8352b.c.o
LOAD ./Debug/tft_lcd_lcd_mcu_st7789v.c.o
LOAD ./Debug/tft_lcd_lcd_mcu_hx8352c.c.o
LOAD ./Debug/tft_lcd_lcd_mcu_hx8357b.c.o
LOAD ./Debug/tft_lcd_lcd_rgb_ili9806e.c.o
LOAD ./Debug/tft_lcd_lcd_rgb_ota5182.c.o
LOAD ./Debug/tft_lcd_lcd_rgb_st7701.c.o
LOAD ./Debug/tft_lcd_lcd_mcu_lgdp4532.c.o
LOAD ./Debug/tft_lcd_lcd_mcu_9225G.c.o
LOAD ./Debug/tft_lcd_lcd_mcu_st7789v2.c.o
LOAD ./Debug/tft_lcd_lcd_mcu_gc9307.c.o
LOAD ./Debug/usensor_237a_1.c.o
LOAD ./Debug/usensor_usensor.c.o
LOAD ./Debug/usensor_237a_2.c.o
LOAD ./Debug/nvfs_nvfs.c.o
LOAD ./Debug/Maxlib_max_user.c.o
LOAD ./Debug/Maxlib_uiDraw.c.o
LOAD ./Debug/std_misc.c.o
LOAD ./Debug/std_std_math.c.o
LOAD ./Debug/std_str.c.o
LOAD ./Debug/res_ascii.c.o
LOAD ./Debug/res_ascii_default.c.o
LOAD ./Debug/res_ascii_default_draw.c.o
LOAD ./Debug/res_ascii_num2.c.o
LOAD ./Debug/res_ascii_num2_draw.c.o
LOAD ./Debug/res_ascii_num3.c.o
LOAD ./Debug/res_ascii_num3_draw.c.o
LOAD ./Debug/res_ascii_num4.c.o
LOAD ./Debug/res_ascii_num4_draw.c.o
LOAD ./Debug/res_R.c.o
LOAD ./Debug/res_R_icon.c.o
LOAD ./Debug/res_R_string.c.o
LOAD ./Debug/res_ascii_num5.c.o
LOAD ./Debug/res_ascii_num5_draw.c.o
LOAD ../bwlib\libusbh.a
LOAD ../bwlib\libsd.a
LOAD ../bwlib\libavi.a
LOAD ../bwlib\libfs.a
LOAD C:/MinGW-4.7.1/or1k-elf/lib/no-delay\libc.a
LOAD C:/MinGW-4.7.1/lib/gcc/or1k-elf/4.9.1/no-delay\libgcc.a

.bootsec        0x01fffc00      0x200 load address 0x00000000
 *(.bootsec)
 .bootsec       0x01fffc00      0x200 ./Debug/ax32xx_BLDRX32.S.o
                0x01fffc10                hex
                0x01fffc10                .hex
                0x01fffde4                .bootsect

.exception      0x00000000     0x1dd0 load address 0x00000200
                0x00000000                _exception_vma = .
 *(.vector)
 .vector        0x00000000      0x3f0 ./Debug/ax32xx_reset.S.o
                0x00000320                _start
                0x0000035c                _step_in
                0x000003a0                _step_out
 *(.vector.text)
 .vector.text   0x000003f0     0x15dc ./Debug/src_ax32xx_int.c.o
                0x00000534                exception_uart_puts
                0x00000548                memcpy_flash2psram
                0x000005a0                flash_to_psram
                0x000006a0                exception_init
                0x0000076c                ax32xx_vddrtcCalculate
                0x00000798                my_memset
                0x000007c8                my_putchar
                0x000007dc                myputs
                0x00000804                my_putword
                0x00000818                dllcon_init
                0x000009c4                sdram_init
                0x00000a94                adcRead
                0x00000aec                adcConverStart
                0x00000b10                adcSetBaudrate
                0x00000b40                sysClkSet
                0x00000b9c                adcEnable
                0x00000c04                adcGetChannel
                0x00000c3c                sdram_tuning_check_2
                0x00000dbc                _sdr_tuning2_conifg_set
                0x00000ddc                sdram_clock_tune
                0x00001718                exception
                0x000019b0                exception_trigger
 *(.vector.data)
 .vector.data   0x000019cc      0x100 ./Debug/ax32xx_reset.S.o
                0x000019cc                _step_data
 .vector.data   0x00001acc      0x304 ./Debug/src_ax32xx_int.c.o
                0x00001acc                tune_values
                0x00001c4c                tune_by
                0x00001c58                tune_tab_2_dll
                0x00001c68                tune_tab_1_dll
                0x00001c78                tune_tab_2_clk
                0x00001c98                tune_tab_1_clk
                0x00001cb8                tuning_test_addr
                0x00001d38                tuning_test_data
                0x00001db8                SDRTUN2_CON
                0x00001dbc                sdr_tune_source
                0x00001dc0                chip_vision

.ram            0x00001de0     0x2ce0 load address 0x00001fe0
                0x00001de0                __sram_start = .
 *(.msk_var_use)
 *(.sdc_buf)
 .sdc_buf       0x00001de0       0x40 ../bwlib\libsd.a(ax32xx_sd.o)
 *(.sram_comm)
 .sram_comm     0x00001e20       0x60 ./Debug/xos_xmsgq.c.o
 .sram_comm     0x00001e80      0x280 ./Debug/src_ax32xx_isp.c.o
                0x00001e80                csi_stat
 .sram_comm     0x00002100     0x25c0 ./Debug/src_hal_sys.c.o
                0x00002100                ramuse
 .sram_comm     0x000046c0      0x400 ./Debug/husb_hal_usb_host_uvc.c.o
                0x000046c0                isobuf
                0x00004ac0                __sram_end = .

.fifo           0x00008000      0xce0
                0x00008000                __ufifo_start = .
 *(.sram_Usbfifo)
 .sram_Usbfifo  0x00008000      0xce0 ./Debug/src_hal_sys.c.o
                0x00008000                usbfifo
                0x00008ce0                __ufifo_end = .

.text           0x02000000    0x91784 load address 0x00002000
                0x02000000                _text_start = .
 *(.text*)
 .text          0x02000000        0x0 ./Debug/ax32xx_reset.S.o
 .text          0x02000000        0x0 ./Debug/ax32xx_spi_boot_cfg.S.o
 .text          0x02000000        0x0 ./Debug/ax32xx_BLDRX32.S.o
 .text          0x02000000      0xaa8 ./Debug/main.c.o
                0x02000000                registerTask
                0x0200008c                init
                0x020004c4                tap_exec
                0x02000618                init_tap
                0x02000a40                systemService
                0x02000a74                sendDrawUIMsg
 .text.startup  0x02000aa8       0xe0 ./Debug/main.c.o
                0x02000aa8                main
 .text          0x02000b88     0x1e1c ./Debug/resource_manager.c.o
                0x02000cc4                managerInit
                0x02000d3c                managerCreate
                0x02000e14                managerDestory
                0x02000e8c                managerFileCount
                0x02000f24                managerFileCountEx
                0x02000f90                managerLockFileExt
                0x02001038                managerUnlockFileExt
                0x020010e4                managerCheckLock
                0x02001120                managerCheckLockExt
                0x020011b0                managerFlush
                0x0200121c                managerDelFileByIndex
                0x0200132c                managerDelFileAll
                0x02001410                managerScanStart
                0x02001478                managerScanEnd
                0x02001538                explorerListHook
                0x02001550                managerNameChange
                0x02001764                managerSpaceCheck
                0x02001b18                manangerCheckFileType
                0x02001d5c                managerAddFile
                0x02001e00                managerAddFileEx
                0x02001e60                managerRenameExt
                0x02001f00                managerRename
                0x02001fc0                managerLockFile
                0x02002048                managerUnlockFile
                0x02002108                managerDelFileByName
                0x02002264                managerDelFileByFullName
                0x020023e4                managerFileNameCreater
                0x020025f8                managerFileScan
                0x0200277c                manangerGetFileFullPathName
                0x02002830                manangerGetFileName
                0x020028c8                manangerFindFileAndDel
 .text          0x020029a4      0x4d8 ./Debug/upgrade.c.o
                0x020029a4                upgrade_uiProgress
                0x020029e4                upgrade
 .text          0x02002e7c      0x314 ./Debug/board.c.o
                0x02002e7c                boardInit
                0x02002fa8                boardOpen
                0x0200304c                boardIoctrl
                0x020030d4                boardNameIoctrl
 .text          0x02003190      0xd08 ./Debug/board_bwv1.c.o
                0x020038d0                getCurBatteryADC
                0x020038f0                getKeyADCvalue
                0x02003910                getKeyVal
                0x020039fc                getKey
                0x02003c40                keyScanKey
                0x02003e5c                board_powerCheck
 .text          0x02003e98      0x2e0 ./Debug/config.c.o
                0x02003e98                configCheckSumCal
                0x02003edc                userConfigSave
                0x02003f50                userConfigReset
                0x0200404c                userConfigInitial
                0x020040fc                configSet
                0x02004138                configGet
 .text          0x02004178      0xbd8 ./Debug/display.c.o
                0x02004178                dispLayerPIPOnlyBack
                0x020041f4                dispLayerPIPBakRightTop
                0x02004294                dispLayerPIPFrtRightTop
                0x02004318                dispLayerPIPFBHalf
                0x0200439c                dispLayerPIPBFHalf
                0x02004420                dispLayerPIPOnlyFront
                0x020044b4                dispLayerUninit
                0x02004510                dispLayerGetResolution
                0x020045e4                dispLayerSetResolution
                0x020046d0                dispLayerSetRotate
                0x02004704                dispRatioResolutionCalculate
                0x020047dc                dispLayerSetRatio
                0x0200488c                dispLayerInit
                0x02004ab8                dispLayerShow
                0x02004afc                dispLayerGetFrame
                0x02004b44                dispLayerFreeFrame
                0x02004bbc                dispLayerSetFrame
                0x02004be8                dispLayerSetPIPMode
                0x02004c4c                dispLayer_ABwin
                0x02004c7c                dispLayer_getABwin
                0x02004c9c                dispLayerSetFrontCrop
 .text          0x02004d50        0x0 ./Debug/explorer.c.o
 .text          0x02004d50      0xe48 ./Debug/filelist.c.o
 .text          0x02005b98      0x874 ./Debug/font.c.o
                0x02005da8                fontInit
                0x02005e70                fontSetLanguage
                0x02005f20                fontGetStringInfo
                0x02005fd0                fontDrawString
                0x020061c0                resGetString
                0x020062d8                resGetChar
 .text          0x0200640c      0x270 ./Debug/icon.c.o
                0x0200640c                iconInit
                0x02006458                iconGetSize
                0x020064fc                iconGetData
                0x02006598                iconGetAddr
                0x0200660c                iconGetPalette
 .text          0x0200667c        0x0 ./Debug/board_fpga.c.o
 .text          0x0200667c       0x58 ./Debug/configGetValue.c.o
                0x0200667c                configValue2Int
 .text          0x020066d4      0x270 ./Debug/configSystem.c.o
                0x020066d4                configLanguage
                0x0200674c                configSys
                0x02006908                configSystem
 .text          0x02006944      0x4f0 ./Debug/logo.c.o
                0x02006944                upgrade_uvc
                0x020069ec                logo_image_show
                0x02006b08                logo_music_show
                0x02006c84                layout_logo_show
                0x02006d30                layout_version_get
                0x02006e1c                layout_keysound_load
 .text          0x02006e34       0xb0 ./Debug/menuMovieRec.c.o
                0x02006e34                menuProcDateTime
                0x02006e60                menuProcDefault
                0x02006e8c                menuProcVersion
                0x02006eb8                menuProcFormat
 .text          0x02006ee4      0x134 ./Debug/menuPlayBack.c.o
                0x02006ee4                menuProcDelCur
                0x02006f10                menuProcDelCur2
                0x02006f3c                menuProcDelAll
                0x02006f68                menuProcDelAll2
                0x02006f94                menuProcLockCur
                0x02006fc0                menuProcUnlockCur
                0x02006fec                menuProcUnlockAll
 .text          0x02007018      0x360 ./Debug/msgDeal.c.o
                0x02007018                msgFuncRegister
                0x020070d0                unshieldedMsgFuncRegister
                0x0200714c                msgDeal
                0x02007284                msgDealByType
                0x0200731c                msgDealByMsgInfor
 .text          0x02007378      0x10c ./Debug/msgSysRecommend.c.o
 .text          0x02007484      0x610 ./Debug/msgSysUnshielded.c.o
 .text          0x02007a94      0x358 ./Debug/taskManage.c.o
                0x02007a94                taskInit
                0x02007b08                taskInfor
                0x02007b1c                taskRegister
                0x02007b54                taskCurrent
                0x02007b74                taskNext
                0x02007b94                taskStart
                0x02007c14                taskChange
                0x02007c80                taskService
 .text          0x02007dec      0x330 ./Debug/taskPhotoEncode.c.o
                0x02007dec                taskPhotoEncodeService
                0x02007e00                taskPhotoEncodeOpen
                0x02007e54                taskPhotoEncodeClose
                0x02007eac                task_image_createfile
                0x02007f8c                image_take_photo
 .text          0x0200811c      0x99c ./Debug/taskPhotoEncodeMsg.c.o
 .text          0x02008ab8      0x560 ./Debug/taskPlayBack.c.o
                0x02008ab8                taskPlayBackClose
                0x02008af8                video_playback_start
                0x02008d18                taskPlayBackOpen
                0x02008d98                taskPlayBackService
                0x02008e44                imageRegionCopy
 .text          0x02009018     0x1304 ./Debug/taskPlayBackMsg.c.o
 .text          0x0200a31c      0x234 ./Debug/taskPowerOff.c.o
                0x0200a31c                uninit
                0x0200a4c0                taskPowerOffOpen
 .text          0x0200a550     0x1b60 ./Debug/taskSysScanDevice.c.o
                0x0200aa6c                deamon_night_effect
                0x0200aaa8                timerMsgSend
                0x0200ab4c                setKeyEn
                0x0200ab6c                info_value_init
                0x0200abec                set_info_value
                0x0200ac84                get_info_value
                0x0200ad10                updata_settings_menu
                0x0200add8                get_usb_to_video_flag
                0x0200adf8                set_usb_to_video_flag
                0x0200ae18                deamon_astern_check
                0x0200aeb4                reflush_usensor_check
                0x0200af10                setSoftwareDetachUsensor
                0x0200af30                deamon_usb_check
                0x0200b1d8                deamon_gsensor_check
                0x0200b2b4                set_clock_state
                0x0200b2d4                get_clock_state
                0x0200b2f4                deamon_clock_check
                0x0200b3c0                deamon_screen_save
                0x0200b530                deamon_key_check
                0x0200b784                deamon_auto_poweroff
                0x0200b8c4                deamon_keysound_play
                0x0200b8dc                deamon_fsFreeSize
                0x0200b94c                deamon_fs_scan
                0x0200bb54                deamon_sdc_check
                0x0200bd6c                taskSysScanDev
                0x0200be68                deamon_usb_to_video_check_card
                0x0200bf00                deamon_fsSizeModify
                0x0200bf94                get_key_clock_value
                0x0200bfe0                get_suspended_lcd_value
                0x0200c070                set_key_press_power_clock
                0x0200c090                get_key_press_power_clock
 .text          0x0200c0b0      0x2ac ./Debug/taskUsbDevice.c.o
 .text          0x0200c35c      0xe74 ./Debug/taskVideoRecord.c.o
                0x0200c35c                video_record_start
                0x0200c3fc                task_record_stop
                0x0200c47c                taskVideoRecordeClose
                0x0200c55c                task_video_record_caltime
                0x0200c598                video_record_callback
                0x0200ce74                taskVideoRecordeOpen
                0x0200cfbc                task_video_record_caltime_rename
                0x0200d004                taskVideoRecordeService
                0x0200d11c                taskVideoRecTimeIncreace
                0x0200d130                videoCapturePhoto
 .text          0x0200d1d0     0x1390 ./Debug/taskVideoRecordMsg.c.o
                0x0200e3e0                recordTimeCount1S
 .text          0x0200e560       0xcc ./Debug/toolFunc.c.o
                0x0200e560                intToString
 .text          0x0200e62c      0x7b0 ./Debug/uiAsternMsg.c.o
 .text          0x0200eddc      0x838 ./Debug/uiMenuDateTimeMsg.c.o
                0x0200f2ac                dateTimeStrUpdate
                0x0200f2d4                dateTimeIncreace
                0x0200f474                dateTimeDecreace
 .text          0x0200f614      0x35c ./Debug/uiMenuDefaultMsg.c.o
 .text          0x0200f970      0x490 ./Debug/uiMenuDelAllMsg.c.o
 .text          0x0200fe00      0x458 ./Debug/uiMenuDelCurMsg.c.o
 .text          0x02010258      0x45c ./Debug/uiMenuFormatMsg.c.o
 .text          0x020106b4      0xb28 ./Debug/uiMenuItemMsg.c.o
                0x020111bc                menuIsOpen
 .text          0x020111dc      0x4d8 ./Debug/uiMenuLockCurMsg.c.o
 .text          0x020116b4      0x434 ./Debug/uiMenuOptionMsg.c.o
 .text          0x02011ae8      0x4ac ./Debug/uiMenuUnlockAllMsg.c.o
 .text          0x02011f94      0x4a8 ./Debug/uiMenuUnlockCurMsg.c.o
 .text          0x0201243c      0x228 ./Debug/uiMenuUsbMsg.c.o
 .text          0x02012664      0x2b0 ./Debug/uiNoFileMsg.c.o
 .text          0x02012914      0x3cc ./Debug/uiTips1Msg.c.o
 .text          0x02012ce0      0x32c ./Debug/uiTipsMsg.c.o
 .text          0x0201300c      0x400 ./Debug/uiWin.c.o
                0x0201300c                dialogCB
                0x020131d4                uiParentDealMsg
                0x02013204                uiOpenWindow
                0x020132ec                uiOpenWinAndShow
                0x020133dc                windowIsOpen
 .text          0x0201340c      0x944 ./Debug/uiSelfTestMsg.c.o
 .text          0x02013d50      0x1c0 ./Debug/uiMenuVersionMsg.c.o
 .text          0x02013f10      0x9bc ./Debug/taskAudioRecordMsg.c.o
                0x020145d4                audioGetCurFileName
                0x02014604                audioParseCurFileName
                0x0201478c                AudioShow_RecState
                0x020148a4                Test_Delay_Ms
 .text          0x020148cc      0x2e0 ./Debug/taskAudioRecord.c.o
                0x020148cc                taskAudioRecordeOpen
                0x02014968                taskAudioRecordeClose
                0x02014998                audio_record_callback
                0x02014ae4                taskAudioRecordeService
 .text          0x02014bac      0x134 ./Debug/taskAudioPlay.c.o
                0x02014bac                taskAudioPlayOpen
                0x02014bec                taskAudioPlayClose
                0x02014c1c                taskAudioPlayService
                0x02014c3c                audio_play_start
 .text          0x02014ce0      0x774 ./Debug/taskAudioPlaydMsg.c.o
 .text          0x02015454     0x1354 ./Debug/uiSelfClockMsg.c.o
 .text          0x020167a8      0x41c ./Debug/uiMenuDelAllMsg2.c.o
 .text          0x02016bc4        0x0 ./Debug/uiMenuDelAllRes2.c.o
 .text          0x02016bc4      0x458 ./Debug/uiMenuDelCurMsg2.c.o
 .text          0x0201701c        0x0 ./Debug/uiMenuDelCurRes2.c.o
 .text          0x0201701c        0x0 ./Debug/xos_x_cpu.c.o
 .text          0x0201701c      0x1b0 ./Debug/xos_xmbox.c.o
                0x0201701c                XMboxInit
                0x0201705c                XMboxCreate
                0x020170e4                XMboxDestory
                0x0201711c                XMboxPost
                0x02017170                XMboxPend
 .text          0x020171cc      0x2e4 ./Debug/xos_xmsgq.c.o
                0x020171cc                XMsgQInit
                0x0201720c                XMsgQCreate
                0x0201729c                XMsgQDestory
                0x020172d4                XMsgQFlush
                0x02017314                XMsgQPost
                0x0201738c                XMsgQPostFront
                0x02017408                XMsgQPend
                0x02017498                XMsgQCheck
 .text          0x020174b0      0x12c ./Debug/xos_xos.c.o
                0x020174b0                XOSInit
                0x020174f0                XOSTickService
                0x02017560                XOSTimeGet
                0x02017580                XOSTimeDly
                0x020175bc                XOSRandom
 .text          0x020175dc      0x168 ./Debug/xos_xwork.c.o
                0x020175dc                XWorkInit
                0x0201761c                XWorkCreate
                0x020176a8                XWorkDestory
                0x020176d8                XWorkService
 .text          0x02017744        0x0 ./Debug/multimedia_user_media.c.o
 .text          0x02017744      0x1e8 ./Debug/sUI_button.c.o
                0x02017814                buttonCreate
                0x02017888                buttonCreateIndirect
 .text          0x0201792c      0x168 ./Debug/sUI_dialog.c.o
                0x0201792c                dialogCreate
                0x020179dc                dialogItem
 .text          0x02017a94      0x22c ./Debug/sUI_frameWin.c.o
                0x02017bec                frameWinCreate
                0x02017c50                frameWinCreateIndirect
 .text          0x02017cc0      0x2b0 ./Debug/sUI_imageIcon.c.o
                0x02017e48                imageIconCreate
                0x02017ef4                imageIconCreateIndirect
 .text          0x02017f70     0x1838 ./Debug/sUI_itemManage.c.o
                0x02017f70                itemManageCreate
                0x02017ff4                itemManageCreateIndirect
                0x02018068                itemManageSetItemHeight
                0x020181ec                itemManageSetHeightAvgGap
                0x02018360                itemManageSetRowSum
                0x020184bc                itemManageSetColumnSum
                0x0201860c                itemManageSetColumnSumWithGap
                0x02018788                itemManageSetColumnMargin
                0x020188b8                itemManageCreateItem
                0x02018a54                itemManageSetResInforFuncEx
                0x02018aac                itemManageSetCurItem
                0x02018da8                itemManageUpdateRes
                0x02018e60                itemManageUpdateAllitem
                0x02018ec4                itemManageUpdateCurItem
                0x02019068                itemManageNextItem
                0x020190d8                itemManagePreItem
                0x02019148                itemManageGetCurrentItem
                0x020191ac                itemManageSetCharInfor
                0x02019264                itemManageSetSelectColor
                0x02019310                itemManageSetSelectImage
                0x020193ac                itemManageSetUnselectColor
                0x02019458                itemManageSetUnselectImage
                0x020194f4                itemManageGetResNum
                0x02019630                itemManageGetTouchInfor
 .text          0x020197a8      0x43c ./Debug/sUI_menuItem.c.o
                0x02019a48                menuItemCreate
                0x02019af8                itemCreateMenuItem
 .text          0x02019be4      0x494 ./Debug/sUI_menuItemEx.c.o
                0x02019e70                menuItemExCreate
                0x02019f20                itemCreateMenuItemEx
 .text          0x0201a078      0x3d8 ./Debug/sUI_menuOption.c.o
                0x0201a2dc                menuOptionCreate
                0x0201a388                itemCreatemenuOption
 .text          0x0201a450      0x274 ./Debug/sUI_progressBar.c.o
                0x0201a5c8                progressBarCreate
                0x0201a64c                progressBarCreateIndirect
 .text          0x0201a6c4      0x234 ./Debug/sUI_rect.c.o
                0x0201a800                rectCreate
                0x0201a884                rectCreateIndirect
 .text          0x0201a8f8      0x2e0 ./Debug/sUI_stringIcon.c.o
                0x0201aa80                stringIconCreate
                0x0201ab2c                stringIconCreateIndirect
 .text          0x0201abd8      0x2a8 ./Debug/sUI_tips.c.o
                0x0201ad6c                tipsCreate
                0x0201adf8                tipsCreateIndirect
 .text          0x0201ae80      0x26c ./Debug/sUI_uiAlloc.c.o
                0x0201ae80                uiHeapInit
                0x0201aeb8                uiAlloc
                0x0201afb0                uiFree
                0x0201b0b0                uiHeapInfor
                0x0201b0d8                heapAllocTest
 .text          0x0201b0ec      0x11c ./Debug/sUI_widget.c.o
                0x0201b0ec                widgetProc
                0x0201b138                widgetSetType
                0x0201b168                widgetGetType
                0x0201b19c                widgetGetId
                0x0201b1d4                widgetSetId
 .text          0x0201b208     0x1c04 ./Debug/sUI_winManage.c.o
                0x0201b208                winErrShow
                0x0201b24c                winSendMsg
                0x0201b28c                winSendMsgNoData
                0x0201b2b4                winSendMsgToParent
                0x0201b2e4                winSendMsgToParentNoData
                0x0201b30c                winOverlapping
                0x0201b370                winContain
                0x0201b3d4                winHasInvalidRect
                0x0201b430                winFreeInvalidRect
                0x0201b72c                winCreate
                0x0201bb38                winDestroy
                0x0201bcb0                winGetTouchInfor
                0x0201bce0                winTouch
                0x0201bf00                winSetbgColor
                0x0201bf34                winSetfgColor
                0x0201bf68                winSetVisible
                0x0201bfec                winIsVisible
                0x0201c028                winSetResid
                0x0201c058                winSetItemSelResid
                0x0201c088                winGetResMaxNum
                0x0201c0c8                winSetResSum
                0x0201c0f8                winSetResidByNum
                0x0201c140                winSetStrInfor
                0x0201c188                winSetSelectStrInfor
                0x0201c1d0                winSetSelectInfor
                0x0201c214                winSetUnselectInfor
                0x0201c258                winChangeNotify
                0x0201c2c0                winDefaultProc
                0x0201c6b8                winResize
                0x0201c848                winGetRelativePos
                0x0201c8d8                winGetPos
                0x0201c91c                winUpdate
                0x0201c98c                winSetPorgressRate
                0x0201c9bc                winGetCurrent
                0x0201c9dc                winPaint
                0x0201cae8                winSetName
                0x0201cb08                winIntersection
                0x0201cbbc                winUpdateAllResId
                0x0201cc20                winDestroyDeskTopChildWin
                0x0201cc94                winInit
                0x0201cd80                winUninit
 .text          0x0201ce0c      0x174 ./Debug/sUI_memPool.c.o
                0x0201ce0c                mempCreate
                0x0201ce74                mempGet
                0x0201cecc                mempPut
                0x0201cf08                mempInfor
 .text          0x0201cf80      0x3bc ./Debug/src_ax32xx_int.c.o
                0x0201cf80                ax32xx_intHandler
                0x0201cf94                fast_isr
                0x0201d074                slow_isr
                0x0201d168                ax32xx_intEnable
                0x0201d1b0                ax32xx_int_priority
                0x0201d1f8                ax32xx_intInit
 .text          0x0201d33c      0x9c8 ./Debug/src_ax32xx_sys.c.o
                0x0201d33c                ax32xx_sysCpuMsDelay
                0x0201d378                ax32xx_sysCpuNopDelay
                0x0201d3a0                ax32xx_sysDcacheInit
                0x0201d3e4                ax32xx_sysIcacheInit
                0x0201d428                ax32xx_sysDcacheWback
                0x0201d4a4                ax32xx_sysDcacheFlush
                0x0201d520                ax32xx_sysDcacheInvalid
                0x0201d59c                ax32xx_sysSRAMClear
                0x0201d5f0                ax32xx_sysBSSClear
                0x0201d654                ax32xx_sysLDOSet
                0x0201d838                ax32xx_sysClkSet
                0x0201d894                ax32xx_sysReset
                0x0201d8d4                ax32xx_sys_dma_memdown
                0x0201d938                ax32xx_sys_dma_memkick
                0x0201d9fc                ax32xx_mcpy_gram2ufifo
                0x0201da5c                ax32xx_mcpy1_sdram2gram
                0x0201db00                ax32xx_sysInit
                0x0201dc44                ax32xx_sysUninit
 .text          0x0201dd04      0x298 ./Debug/src_ax32xx_dma.c.o
                0x0201dd04                ax32xx_dmaNocCfg
                0x0201df2c                ax32xx_dmaNocDefault
                0x0201df54                ax32xx_dmaChannelEnable
 .text          0x0201df9c       0xc8 ./Debug/src_ax32xx_wdt.c.o
                0x0201df9c                ax32xx_wdtEnable
                0x0201dfd0                ax32xx_wdtEnable2
                0x0201e000                ax32xx_wdtTimeSet
                0x0201e014                ax32xx_wdtClear
                0x0201e048                ax32xx_wdtReset
 .text          0x0201e064      0xe08 ./Debug/src_ax32xx_gpio.c.o
                0x0201e064                ax32xx_gpioSFRSet
                0x0201e2a8                ax32xx_gpioDirSet
                0x0201e34c                ax32xx_gpioPullSet
                0x0201e418                ax32xx_gpioDrvSet
                0x0201e4a8                ax32xx_gpioDataSet
                0x0201e534                ax32xx_gpioDataGrounpSet
                0x0201e5b0                ax32xx_gpioDataGet
                0x0201e634                ax32xx_gpioMapSet
                0x0201e6c4                ax32xx_gpioDigitalSet
                0x0201e754                ax32xx_gpioHystersisSet
                0x0201e7e4                ax32xx_gpioLedPull
                0x0201e8b0                ax32xx_gpioLedInit
                0x0201e940                ax32xx_gpioINTCheck
                0x0201e978                ax32xx_gpioINTClear
                0x0201e9a0                ax32xx_gpioINTInit
                0x0201ead0                ax32xx_gpioIRQHandler
                0x0201eb6c                ax32xx_io1d1_softstart
                0x0201ed2c                ax32xx_io1d1_softstart_clr
                0x0201eddc                ax32xx_io1d1_pd_enable
 .text          0x0201ee6c      0x1a4 ./Debug/src_ax32xx_uart.c.o
                0x0201ee6c                ax32xx_uart0IRQHandler
                0x0201eebc                ax32xx_uart0IOCfg
                0x0201ef5c                ax32xx_uart0Init
                0x0201efd0                ax32xx_uart0SendByte
 .text          0x0201f010      0x4c0 ./Debug/src_ax32xx_timer.c.o
                0x0201f010                ax32xx_timer0IRQHandler
                0x0201f054                ax32xx_timer1IRQHandler
                0x0201f098                ax32xx_timer2IRQHandler
                0x0201f0dc                ax32xx_timer3IRQHandler
                0x0201f120                ax32xx_timerISRRegister
                0x0201f164                ax32xx_timerStart
                0x0201f260                ax32xx_timerStop
                0x0201f330                ax32xx_timerEnable
                0x0201f3bc                ax32xx_timerDisable
                0x0201f460                ax32xx_timerTickStart
                0x0201f494                ax32xx_timerTickStop
                0x0201f4b4                ax32xx_timerTickCount
 .text          0x0201f4d0      0x468 ./Debug/src_ax32xx_tminf.c.o
                0x0201f4d0                ax32xx_mjpegATimeinfoEnable
                0x0201f53c                ax32xx_mjpegBTimeinfoEnable
                0x0201f5a8                ax32xx_mjpegATimeinfoColor
                0x0201f5f4                ax32xx_mjpegBTimeinfoColor
                0x0201f650                ax32xx_mjpegATimeinfoSize
                0x0201f6ac                ax32xx_mjpegBTimeinfoSize
                0x0201f734                ax32xx_mjpegATimeinfoPos
                0x0201f790                ax32xx_mjpegBTimeinfoPos
                0x0201f818                ax32xx_mjpegATimeinfoAddr
                0x0201f85c                ax32xx_mjpegBTimeinfoAddr
                0x0201f8cc                ax32xx_recfg_mjpb_tminf
 .text          0x0201f938      0x7f4 ./Debug/src_ax32xx_spi.c.o
                0x0201f938                ax32xx_spi0Init
                0x0201fb58                ax32xx_spi0SendByte
                0x0201fbac                ax32xx_spi0RecvByte
                0x0201fc00                ax32xx_spi0Send0
                0x0201fcb8                ax32xx_spi0Recv0
                0x0201fd70                ax32xx_spi0CS0Config
                0x0201fdb4                spi1_pin_config
                0x0201fe84                hal_spi1Init
                0x0201fefc                spi1_send_byte
                0x0201ff6c                spi1_receive_byte
                0x0201ffb4                spi1_recevie_dma
                0x0202004c                spi1_send_dma
                0x020200e8                spi1_enable
 .text          0x0202012c      0xb7c ./Debug/src_ax32xx_rtc.c.o
                0x0202012c                ax32xx_rtcWriteByte
                0x0202017c                ax32xx_rtcReadByte
                0x020201e0                ax32xx_rtcRamRead
                0x0202027c                ax32xx_rtcRamWrite
                0x02020318                ax32xx_rtcDataRead
                0x020203a0                ax32xx_rtcDataWrite
                0x02020428                ax32xx_rtcInit
                0x020204d8                ax32xx_rtcIRQHandler
                0x02020598                ax32xx_rtcSencodEnable
                0x02020614                ax32xx_rtcAlamEnable
                0x020206fc                ax32xx_rtcAlamSet
                0x02020744                ax32xx_rtcGet
                0x02020798                ax32xx_rtcSet
                0x020207e0                ax32xx_WKOEnable
                0x0202083c                ax32xx_VDDGSENEnable
                0x020208ac                ax32xx_WKI0InputEnable
                0x0202091c                ax32xx_WKI1InputEnable
                0x0202098c                ax32xx_WKI1Read
                0x020209b0                ax32xx_WKI0Read
                0x020209d4                ax32xx_WKI1WakeupEnable
                0x02020b3c                ax32xx_WKI1WakeupTriger
                0x02020b8c                ax32xx_WKI1CleanPending
                0x02020bc8                ax32xx_rtcBatDecEnable
                0x02020c38                ax32xx_rtcSenHVEnable
 .text          0x02020ca8      0x118 ./Debug/src_ax32xx_md.c.o
                0x02020ca8                ax32xx_mdEnable
                0x02020d10                ax32xx_mdEnable_check
                0x02020d30                ax32xx_mdInit
                0x02020d78                ax32xx_mdXPos
                0x02020d9c                ax32xx_mdYPos
 .text          0x02020dc0      0x7e8 ./Debug/src_ax32xx_iic.c.o
                0x02020e78                software_iic_sdaout
                0x02020eac                software_iic_sdain
                0x02020ee0                software_iic_sda_set
                0x02020f0c                software_iic_scl_set
                0x02020f38                software_iic_sda_get
                0x02020f60                software_iic_init
                0x02020f90                software_iic_start
                0x02021008                software_iic_stop
                0x02021080                software_iic_wait_ack
                0x02021138                ax32xx_iic0Init
                0x020211f8                ax32xx_iic0Uninit
                0x0202123c                ax32xx_iic0Start
                0x02021258                ax32xx_iic0Stop
                0x02021298                ax32xx_iic0RecvACK
                0x020212c0                ax32xx_iic0SendACK
                0x020212e4                ax32xx_iic0SendByte
                0x02021334                ax32xx_iic0RecvByte
                0x02021388                ax32xx_iic1Init
                0x020213b0                ax32xx_iic1Uninit
                0x020213f4                ax32xx_iic1Start
                0x02021410                ax32xx_iic1Stop
                0x02021470                ax32xx_iic1RecvACK
                0x02021498                ax32xx_iic1SendACK
                0x020214bc                ax32xx_iic1SendByte
                0x0202152c                ax32xx_iic1RecvByte
 .text          0x020215a8      0x668 ./Debug/src_ax32xx_dac.c.o
                0x020215e8                ax32xx_dacIRQHandler
                0x020216bc                ax32xx_dacSampleRateSet
                0x0202172c                ax32xx_dacEnable
                0x020217b0                ax32xx_dacVolumeSet
                0x02021828                ax32xx_dacBufferSet
                0x02021848                ax32xx_dacBufferFlush
                0x02021868                ax32xx_dacReset
                0x0202188c                ax32xx_dacStart
                0x02021908                ax32xx_dacStop
                0x02021938                ax32xx_dacISRRegister
                0x02021958                ax32xx_dacHPSet
                0x020219ec                eq_coeff_init
                0x02021a5c                eq_gain_init
                0x02021acc                ax32xx_dacInit
 .text          0x02021c10      0x114 ./Debug/src_ax32xx_adc.c.o
                0x02021c10                ax32xx_adcEnable
                0x02021c78                ax32xx_adcSetBaudrate
                0x02021ca8                ax32xx_adcConverStart
                0x02021ccc                ax32xx_adcRead
 .text          0x02021d24      0x4d0 ./Debug/src_ax32xx_auadc.c.o
                0x02021d24                ax32xx_auadcIRQHandler
                0x02021db4                ax32xx_auadcHalfIRQRegister
                0x02021dd4                ax32xx_auadcEndIRQRegister
                0x02021df4                ax32xx_auadcEnable
                0x02021eec                ax32xx_auadcAGCEnable
                0x02021f7c                ax32xx_auadcGainSet
                0x02021ff8                ax32xx_auadcBufferSet
                0x02022058                ax32xx_auadcInit
                0x020220fc                ax32xx_auadcSetSampleSet
                0x020221e0                agc_gain_mnt
 .text          0x020221f4     0x13f4 ./Debug/src_ax32xx_isp.c.o
                0x020221f4                ax32xx_ispModeSet
                0x02022230                isp_BLC_cfg
                0x02022284                isp_LSC_cfg
                0x020222bc                isp_DDC_cfg
                0x0202242c                isp_AWB_GAIN_adj
                0x02022460                isp_whtpnt_stat_cfg
                0x020226c8                isp_CCM_cfg
                0x02022780                isp_RGB_DGAIN_adj
                0x0202280c                isp_hist_stat_cfg
                0x0202288c                isp_GAMMA_cfg
                0x020229fc                isp_RGB_gam_cfg
                0x02022b80                isp_CH_cfg
                0x02022edc                isp_VDE_cfg
                0x02022fac                isp_EE_cfg
                0x02023220                isp_CCF_cfg
                0x02023358                isp_SAJ_cfg
                0x02023458                isp_kick_stat
                0x02023488                isp_stat_en
                0x020234cc                stat_cp_kick_st
                0x020234f0                stat_cp_done
                0x02023520                isp_model_cfg
 .text          0x020235e8      0x298 ./Debug/src_jpeg_table.c.o
                0x020235e8                jpegA_table_init
                0x02023764                ax32xx_mjpB_tab_init
 .text          0x02023880        0x0 ./Debug/src_isp_tab.c.o
 .text          0x02023880     0x12f4 ./Debug/src_ax32xx_usb.c.o
                0x02023880                _usb_bulk_tx
                0x020239bc                _usb_bulk_rx
                0x02023ac8                _usb_iso_kick
                0x02023bb8                _iso_wait_txdown
                0x02023c28                usb_iso_tx
                0x02023d28                usb_burst_reset
                0x02023d74                usb_host_reset
                0x02023dc0                usb_phyreset_as_typeb
                0x02023f08                usb_phyreset_as_typea
                0x02024054                usb_insert
                0x02024068                usb_check_hal
                0x0202407c                get_u32softcnt
                0x0202409c                ax32xx_usbIRQHanlder
                0x02024190                ax32xx_usbCallbackRegister
                0x020241cc                ax32xx_usb_hostIRQHanlder
                0x020242d0                usb_device_check
                0x02024398                ax32xx_usbPhyPllEnable
                0x02024440                usb11_registers_write
                0x0202446c                usb11_registers_read
                0x020244a4                usb_memcpy
                0x02024518                usb_phyreset_as_typea11
                0x0202461c                usb11_host_reset
                0x02024664                ax32xx_usb11_hostIRQHanlder
                0x02024780                usb20_host_check
                0x02024848                usb11HostCheckNoWait
                0x02024a10                usb11_host_check
                0x02024ae0                usb20_phyreset_as_filter
 .text          0x02024b74      0x210 ./Debug/src_ax32xx_misc.c.o
                0x02024b74                str_seek
                0x02024be0                dec_num2str
                0x02024c20                char_2_hex
                0x02024c74                data_check
                0x02024cb4                pointer_check
                0x02024cd8                half_word_memcpy
                0x02024d10                word_memcpy
                0x02024d48                word_reg_memcpy
 .text          0x02024d84      0x14c ./Debug/src_ax32xx_pip.c.o
                0x02024d84                ax32xx_pipConfig
                0x02024e00                ax32xx_pipEnable
                0x02024e44                ax32xx_pipCounterReset
                0x02024e84                ax32xx_pipGetTopLayer
                0x02024ea8                ax32xx_pipGetBotLayer
 .text          0x02024ed0        0x0 ./Debug/src_ax32xx_btuart.c.o
 .text          0x02024ed0        0x0 ./Debug/src_ax32xx_crc.c.o
 .text          0x02024ed0      0x26c ./Debug/src_ax32xx_emi.c.o
                0x02024ed0                ax32xx_emiInit
                0x0202500c                ax32xx_emiISRRegister
                0x02025040                ax32xx_emiIRQHandler
                0x0202509c                ax32xx_emiKick
                0x020250f8                ax32xx_emiCheckBusy
                0x02025118                ax32xx_emiCheckRXError
 .text          0x0202513c      0x278 ./Debug/src_ax32xx_rotate.c.o
                0x0202513c                ax32xx_rotateISRRegiser
                0x0202515c                ax32xx_rotateCheckBusy
                0x0202517c                ax32xx_rotateReset
                0x020251c8                ax32xx_rotateStart
                0x020252e0                ax32xx_rotateWaitFrameDone
                0x02025334                ax32xx_rotateIRQHandler
                0x02025384                ax32xx_rotateGetSrcYAddr
 .text          0x020253b4      0x370 ./Debug/src_ax32xx_osdcmp.c.o
                0x020253b4                ax32xx_osdcmpISRRegiser
                0x020253d4                ax32xx_osdcmpCheckBusy
                0x020253f8                ax32xx_osdcmpReset
                0x02025444                ax32xx_osdcmpGetCompSize
                0x02025464                ax32xx_osdcmpKick
                0x02025538                ax32xx_osdcmpWaitFrameDone
                0x020255d0                ax32xx_osdcmpCompOneFrame
                0x020256d8                ax32xx_osdcmpIRQHandler
 .text          0x02025724      0xd68 ./Debug/osd_ax32xx_osd.c.o
                0x02025724                ax32xx_deWait
                0x02025780                ax32xx_deUpdate
                0x020257a4                ax32xx_deGetUpdateStatus
                0x020257c8                ax32xx_deIRQHandler
                0x02025828                ax32xx_deISRRegister
                0x02025848                ax32xx_deInit
                0x020258c4                ax32xx_deSetBackground
                0x020258f8                ax32xx_deSetCSC
                0x02025944                ax32xx_videoSetDither
                0x020259e4                ax32xx_videoSetScale
                0x02025a30                ax32xx_videoSetScaleLine
                0x02025aa0                ax32xx_videoSetScanMode
                0x02025aec                ax32xx_videoGetYAddr
                0x02025b1c                ax32xx_videoGetUVAddr
                0x02025b4c                ax32xx_videoSetAddr
                0x02025b68                ax32xx_videoSetStride
                0x02025b8c                ax32xx_videoSetSize
                0x02025bc4                ax32xx_videoSetPosition
                0x02025bec                ax32xx_videoCopyCfg
                0x02025c54                ax32xx_videoEnable
                0x02025c98                ax32xx_degamma_cfg
                0x02025cb8                ax32xx_videoGammaRed
                0x02025cfc                ax32xx_videoGammaGreen
                0x02025d40                ax32xx_videoGammaBlue
                0x02025d84                ax32xx_deSetGAMA
                0x02025e08                ax32xx_deSet_DE_CCM
                0x02025ef0                ax32xx_deSet_DE_SAJ
                0x02025f5c                ax32xx_videoGammaEnable
                0x02025fa0                ax32xx_osdEnable
                0x0202600c                ax32xx_osdSetSize
                0x02026060                ax32xx_osdSetPosition
                0x020260b4                ax32xx_osdSetPalette
                0x020260fc                ax32xx_osdSetAddr
                0x020261b8                ax32xx_osdGetAddr
                0x02026208                ax32xx_osdSetAlpha
                0x02026274                ax32xx_osdSetUpscaler
                0x0202643c                ax32xx_osdEncodeOneCode
 .text          0x0202648c      0xfdc ./Debug/csi_ax32xx_csi.c.o
                0x0202648c                hal_csi_fcnt_get
                0x020264bc                ax32xx_csiIRQHandler
                0x0202674c                ax32xx_csiISRRegiser
                0x02026788                ax32xx_csiMJPEGFrameSet
                0x020267f8                ax32xx_csihv_tomjp_dma_cfg
                0x02026884                ax32xx_csi_only_FrameSet
                0x020268a4                ax32xx_csiYUVFrameSet
                0x020268b8                ax32xx_csiIOConfig
                0x02026910                ax32xx_csiInit
                0x0202693c                ax32xx_csiMclkSet
                0x02026a00                ax32xx_csiSyncSet
                0x02026a64                ax32xx_csiPrioritySet
                0x02026aa8                ax32xx_csiTypeSet
                0x02026b14                ax32xx_csiModeSet
                0x02026b50                ax32xx_pclk_fir_Set
                0x02026bb8                ax32xx_pclk_analog_Set
                0x02026c08                ax32xx_pclk_inv_Set
                0x02026c4c                ax32xx_csi_clk_tun_Set
                0x02026c94                ax32xx_csiSizeSet
                0x02026ccc                ax32xx_csiInputAddrSet
                0x02026ce4                ax32xx_csiTestModeSet
                0x02026d4c                ax32xx_csiDvpClkDivSet
                0x02026d94                ax32xx_csiLCDFrameSet
                0x02026dc0                ax32xx_csiLCDDmaEnable
                0x02026e5c                ax32xx_csiLCDDmaKick
                0x02026ea0                ax32xx_csiLCDScaler
                0x02027074                ax32xx_csiScaler
                0x02027220                ax32xx_hvScaler
                0x02027374                ax32xx_csiScalerCheck
                0x0202739c                ax32xx_csiOutputSet
                0x020273d8                ax32xx_csiEnable
 .text          0x02027468      0xd50 ./Debug/lcd_ax32xx_lcd.c.o
                0x02027468                ax32xx_lcdSPIMode
                0x02027494                ax32xx_lcdSPIInit
                0x02027544                ax32xx_lcdSPIUninit
                0x02027580                ax32xx_lcdSPISendData
                0x020276d4                ax32xx_lcdMcuSendCmd
                0x02027738                ax32xx_lcdMcuSendData
                0x0202778c                ax32xx_lcdMcuSendCmd16
                0x02027810                ax32xx_lcdMcuSendData16
                0x02027894                ax32xx_lcdInit
                0x020278e0                ax32xx_lcdIRQEnable
                0x02027928                ax32xx_lcdPreLineSet
                0x02027944                ax32xx_lcdSignalSet
                0x020279dc                ax32xx_lcdBusWidth
                0x02027a30                ax32xx_lcdBusEnable
                0x02027a80                ax32xx_lcdClkSet
                0x02027aa0                ax32xx_lcdSyncSet
                0x02027ac4                ax32xx_lcdDESignalSet
                0x02027ae8                ax32xx_lcdPositionSet
                0x02027b04                ax32xx_lcdResolutionSet
                0x02027b20                ax32xx_lcdWindowSizeSet
                0x02027b3c                ax32xx_lcdDataModeSet
                0x02027b80                ax32xx_lcdClkNumberSet
                0x02027b98                ax32xx_lcdEndLineSet
                0x02027bb4                ax32xx_lcdPanelMode
                0x02027bfc                ax32xx_lcdEnable
                0x02027c60                ax32xx_lcdTeMode
                0x02027ca8                ax32xx_lcdKick
                0x02027ce0                ax32xx_lcdIRQHandler
                0x02027e50                ax32xx_lcdISRRegister
                0x02027e94                ax32xx_lcdReset
                0x02027f00                ax32xx_lcdMCUIOConfig
                0x02027fe4                ax32xx_lcdRGBIOConfig
                0x020280c8                ax32xx_lcd_lsawbtooth
 .text          0x020281b8     0x1c14 ./Debug/mjpeg_ax32xx_mjpeg.c.o
                0x020281b8                ax32xx_mpegPrint
                0x020285ec                ax32xx_mjpB_reset
                0x02028658                ax32xx_mjpegAIRQHandler
                0x020286ac                ax32xx_mjpB_employ
                0x020286d8                ax32xx_mjpB_dcdown_reg
                0x020286f8                ax32xx_mjB_as_dcode
                0x02028724                ax32xx_mjpegEA_ncodeISRRegister
                0x02028744                ax32xx_mjpegEB_ncodeISRRegister
                0x02028764                ax32xx_mjpegEA_ncodeISR
                0x02028790                ax32xx_mjpegDecodeISRRegister
                0x020287b0                ax32xx_mjpegEncodeBufferSet
                0x020287fc                ax32xx_mjpegEncodeEnable
                0x02028904                ax32xx_mjpegEncodeSizeSet
                0x020289ac                ax32xx_mjpegEncodeQuilitySet
                0x020289f4                cal_jA_1s_size
                0x02028a24                ax32xx_mjpegEncodeQadj
                0x02028aec                ax32xx_mjpegEncodeInfoSet
                0x02028b34                ax32xx_mjpegEncodeLoadAddrGet
                0x02028b50                ax32xx_mjpeg_inlinebuf_init
                0x02028b7c                ax32xx_mjpegEncodeInit
                0x02028dac                ax32xx_mjpeg_manual_on
                0x02028df0                ax32xx_mjpeg_manual_stop
                0x02028e44                ax32xx_mjpegDecodeScalerCal
                0x02028f14                ax32xx_mjpegDecodeSetSize
                0x02029138                ax32xx_mjpegDecodeOutputSet
                0x02029154                ax32xx_mjpegDecodeInputSet
                0x0202918c                ax32xx_mjpegDecodeDriSet
                0x020291a4                ax32xx_mjpegDecodeCompressSet
                0x020291bc                ax32xx_mjpegDecodeInitTable
                0x02029200                ax32xx_mjpegDecodeInit
                0x02029404                ax32xx_mjpegDecodeDCTimeSet
                0x020294a4                ax32xx_mjpegDecodeEnable
                0x02029504                ax32xx_mjpegDecodeKick
                0x0202954c                ax32xx_mjpegDecodeStop
                0x02029588                ax32xx_mjpegBIRQHandler
                0x0202968c                ax32xx_mjpegDecodeQDTCfg
                0x020296ec                ax32xx_mjpegDecodeStatus
                0x02029720                ax32xx_mjpegDecodeCheck
                0x02029750                ax32xx_mjpegDecodeODma1Cfg
                0x020297e4                ax32xx_mjpB_Ctl_init
                0x02029a98                ax32xx_mjpB_Linebuf_cfg
                0x02029ac4                ax32xx_mjpB_dma_cfg
                0x02029af0                ax32xx_mjpB_stop
                0x02029b58                ax32xx_mjpB_on
                0x02029ba4                ax32xx_mjpeg_encode_check
                0x02029d20                jpeg1_decode_check
 .text          0x02029dcc        0x0 ./Debug/resource_user_icon.c.o
 .text          0x02029dcc        0x0 ./Debug/resource_user_str.c.o
 .text          0x02029dcc      0x110 ./Debug/src_hal_adc.c.o
                0x02029dcc                hal_adcInit
                0x02029e08                hal_adcRead
                0x02029e34                hal_adcSetChannel
                0x02029e80                hal_adcGetChannel
                0x02029ebc                hal_adcVDDRTCCalculate
 .text          0x02029edc       0xf0 ./Debug/src_hal_csi.c.o
                0x02029edc                hal_csiMCLKSet
                0x02029efc                hal_csiRegister
                0x02029f30                hal_csiResolutionGet
                0x02029f8c                hal_csiAdptGet
                0x02029fac                hal_csi_SeninitGet
 .text          0x02029fcc      0x24c ./Debug/src_hal_dac.c.o
                0x0202a014                hal_dacInit
                0x0202a06c                hal_dacPlayStart
                0x0202a118                hal_dacPlayStop
                0x0202a144                hal_dacSetVolume
                0x0202a1a8                hal_dacSetBuffer
                0x0202a1cc                hal_dacCallBackRegister
                0x0202a1f0                hal_dacHPSet
 .text          0x0202a218        0x0 ./Debug/src_hal_eeprom.c.o
 .text          0x0202a218      0x2cc ./Debug/src_hal_gpio.c.o
                0x0202a218                hal_gpioInit
                0x0202a2c0                hal_gpioInit_io1d1
                0x0202a368                hal_io1d1_softstart
                0x0202a398                hal_io1d1_softstart_clr
                0x0202a3c0                hal_io1d1_pd_enable
                0x0202a3e8                hal_gpioEPullSet
                0x0202a444                hal_gpioWrite
                0x0202a46c                hal_gpioRead
                0x0202a490                hal_gpioIntInit
                0x0202a4b8                hal_gpioLedInit
 .text          0x0202a4e4      0xbd4 ./Debug/src_hal_iic.c.o
                0x0202a4e4                hal_iic0Init
                0x0202a510                hal_iic0Uninit
                0x0202a530                hal_iic08bitAddrWriteData
                0x0202a5cc                hal_iic08bitAddrReadData
                0x0202a684                hal_iic08bitAddrWrite
                0x0202a744                hal_iic08bitAddrRead
                0x0202a818                hal_iic016bitAddrWriteData
                0x0202a8c0                hal_iic016bitAddrReadData
                0x0202a984                hal_iic016bitAddrWrite
                0x0202aa50                hal_iic016bitAddrRead
                0x0202ab30                hal_iic1IOShare
                0x0202ab60                hal_iic1Init
                0x0202aba0                hal_iic1Uninit
                0x0202abd8                hal_iic18bitAddrWriteData
                0x0202ac50                hal_iic18bitAddrReadData
                0x0202ace4                hal_iic18bitAddrWrite
                0x0202ad80                hal_iic18bitAddrRead
                0x0202ae30                hal_iic116bitAddrWriteData
                0x0202aeb4                hal_iic116bitAddrReadData
                0x0202af54                hal_iic116bitAddrWrite
                0x0202affc                hal_iic116bitAddrRead
 .text          0x0202b0b8     0x1d78 ./Debug/src_hal_lcd.c.o
                0x0202b104                deocode_done
                0x0202b4e0                hal_lcdSetBufYUV
                0x0202b574                hal_lcd_vde_cfg
                0x0202b5ac                hal_lcd_gamma_cfg
                0x0202b760                usb_lcd_cfg
                0x0202ba14                lcd_isp_config
                0x0202bbd8                hal_lcdLCMPowerOff
                0x0202bc50                hal_lcdPreviewStop
                0x0202bc9c                hal_lcdSetShowingSize
                0x0202bcb4                hal_lcdSetRoate
                0x0202bccc                hal_lcdGetShowingBuffer
                0x0202bd30                hal_lcdGetIdleBuffer
                0x0202bd70                hal_lcdPreviewStart
                0x0202beb4                hal_lcdSetFrame
                0x0202bedc                vch_debug
                0x0202bef0                hal_lcdSetVCH
                0x0202bfc8                hal_lcdUpdataVCH
                0x0202c0c4                hal_lcdSwitchFrame2
                0x0202c398                hal_lcdPreSetPIPEnable
                0x0202c3b8                hal_lcdSetPIPEnable
                0x0202c3f0                hal_lcdGetResolution
                0x0202c474                hal_lcdGetOSDShowingResolution
                0x0202c4d0                hal_lcdGetOSDShowingPosition
                0x0202c52c                hal_lcdGetShowingRotate
                0x0202c55c                hal_lcdGetBufferResolution
                0x0202c5b8                hal_lcdGetVideoPos
                0x0202c614                lcd_struct_get
                0x0202c634                hal_lcdFrameEndCallBack
                0x0202c680                hal_lcdRegister
                0x0202cd30                hal_lcd_lsawtooth
                0x0202cd50                hal_lcdSetCsiCrop
                0x0202cdb4                hal_lcdSetShowingSize_rename
 .text          0x0202ce30      0x110 ./Debug/src_hal_md.c.o
                0x0202ce58                hal_mdInit
                0x0202cebc                hal_mdEnable
                0x0202cf08                hal_mdCheck
 .text          0x0202cf40      0x648 ./Debug/src_hal_osd.c.o
                0x0202cf40                hal_osdGetIdleRotateBuffer
                0x0202cf64                hal_osdGetIdleCmpBuffer
                0x0202cf88                hal_osdGetIdleDispBuffer
                0x0202cfac                hal_osdBufferRelease
                0x0202cfd4                hal_osdDealBuffer
                0x0202d054                hal_osdInit
                0x0202d27c                hal_osdGetBuff
                0x0202d2c4                hal_osdEnable
                0x0202d300                hal_osdSetAddr
                0x0202d33c                hal_osdSetBuffer
                0x0202d3cc                hal_osdSetPosition
                0x0202d414                hal_osdSetPalette
                0x0202d44c                hal_osdSetSize
                0x0202d48c                hal_osdSetAlpha
                0x0202d4cc                hal_osdGetBufferResolution
                0x0202d538                hal_deSet_DE_CCM
                0x0202d560                hal_deSet_DE_SAJ
 .text          0x0202d588      0xc70 ./Debug/src_hal_rtc.c.o
                0x0202d5b4                hal_rtcCallBackRegister
                0x0202d614                hal_rtcCallBackRelease
                0x0202d650                hal_rtcUninit
                0x0202d68c                hal_rtcTimeGet
                0x0202d6a8                hal_rtcTimeGetExt
                0x0202d6dc                hal_rtcSecondGet
                0x0202d6fc                hal_rtcTime2String
                0x0202d9b0                hal_rtcTime2StringExt
                0x0202da14                hal_rtcLeapYear
                0x0202dc30                hal_rtcTime
                0x0202dd44                hal_rtcInit
                0x0202de6c                hal_rtcSecondSet
                0x0202dea8                hal_rtcValue
                0x0202dfb8                hal_rtcTimeSet
                0x0202e040                hal_rtcAlarmSet
                0x0202e0d0                hal_rtcAlarmSetExt
                0x0202e174                hal_rtcAlarmStatusGet
                0x0202e1b0                hal_vddWKOEnable
                0x0202e1d4                hal_vddGSENEnable
 .text          0x0202e1f8      0xa1c ./Debug/src_hal_sd.c.o
                0x0202e294                hal_sdStop
                0x0202e494                hal_sdNextLBA
                0x0202e4b4                hal_sdInit
                0x0202e910                hal_sdUninit
                0x0202e93c                hal_sdLock
                0x0202e97c                hal_sdUnlock
                0x0202e9a8                hal_sdCheck
                0x0202ea1c                hal_sdSetCardState
                0x0202ea3c                hal_sdGetCardState
                0x0202ea5c                hal_sdGetBusWidth
                0x0202ea7c                hal_sdCapacity
                0x0202ea9c                hal_sdExist
                0x0202eac4                hal_sdWrite
                0x0202eb64                hal_speed_callback
                0x0202eb94                hal_sdRead
 .text          0x0202ec14      0x5b4 ./Debug/src_hal_spi.c.o
                0x0202ec14                hal_spiIOShare
                0x0202ec2c                hal_spiIOCheck
                0x0202ec40                hal_spiInit
                0x0202ec6c                hal_spiSendByte
                0x0202ec90                hal_spiSend
                0x0202ecb0                hal_spiRecvByte
                0x0202ecd0                hal_spiRecv
                0x0202ed10                hal_spiCSConfig
                0x0202ed34                hal_spiFlashReadID
                0x0202ed94                hal_spiFlashWriteEnable
                0x0202edc8                hal_spiFlashWait
                0x0202ee4c                hal_spiFlashReadPage
                0x0202eec4                hal_spiFlashRead
                0x0202ef8c                hal_spiFlashWritePage
                0x0202f020                hal_spiFlashWrite
                0x0202f0bc                hal_spiFlashEraseSector
                0x0202f128                hal_spiFlashEraseBlock
                0x0202f18c                hal_spiFlashEraseChip
 .text          0x0202f1c8       0xd8 ./Debug/src_hal_timer.c.o
                0x0202f1c8                hal_timerStart
                0x0202f1ec                hal_timerStop
                0x0202f210                hal_timerEnable
                0x0202f248                hal_timerTickEnable
                0x0202f280                hal_timerTickGet
 .text          0x0202f2a0      0x67c ./Debug/src_hal_uart.c.o
                0x0202f304                hal_uartIOShare
                0x0202f344                hal_uartIOShareCheck
                0x0202f38c                hal_uartInit
                0x0202f3dc                hal_uartSendData
                0x0202f400                hal_uartRXIsrRegister
                0x0202f420                uart_PutChar_n
                0x0202f454                uart_PutStr
                0x0202f494                uart_Put_hex
                0x0202f5c0                uart_Put_udec
                0x0202f654                uart_Put_dec
                0x0202f6fc                uart_Printf
                0x0202f840                uart_PrintfBuf
                0x0202f8d8                hal_uartPrintString
 .text          0x0202f91c      0x64c ./Debug/src_hal_watermark.c.o
                0x0202f984                hal_watermarkInit
                0x0202fa34                hal_watermarkClose
                0x0202facc                hal_watermarkClear
                0x0202fb4c                hal_watermarkOpen
                0x0202fbec                hal_watermarkColor
                0x0202fc40                hal_watermarkAddr
                0x0202fc58                hal_watermarkSize
                0x0202fca4                hal_watermarkPosition
                0x0202fcf0                hal_watermarkCallbackRegister
                0x0202fd38                hal_watermarkRam
                0x0202fdd8                hal_watermarkEnable
                0x0202ff48                hal_watermarkBPos_Adjust
 .text          0x0202ff68      0x3c4 ./Debug/src_hal_sys.c.o
                0x0202ffb0                hal_sysInit
                0x020300cc                hal_sysMemPrint
                0x020300fc                hal_sysMemMalloc
                0x020301cc                hal_sysMemFree
                0x020302c0                hal_sysMemRemain
 .text          0x0203032c      0xe08 ./Debug/src_hal_auadc.c.o
                0x0203032c                _hal_auadcCallBackEnd
                0x02030428                _hal_auadcCallBackHalf
                0x02030480                hal_audc_33ms_syncnt_clr
                0x020304ac                hal_audc_stamp_cal
                0x020304d8                hal_audc_stamp_out
                0x0203052c                hal_audc_stamp_next
                0x02030588                hal_auadcCallBackEnd
                0x02030674                hal_auadcInit
                0x020306cc                hal_auadcMemInit
                0x02030740                hal_auadcMemInitB
                0x020307b0                hal_auadcMemUninit
                0x020307fc                hal_auadcMemUninitB
                0x02030858                hal_auadc_cnt
                0x02030888                _hal_auadcStartForUAC
                0x02030968                hal_auadcStartForWAV
                0x02030a60                hal_auadcStartForAVI
                0x02030b80                hal_auadcStartForAVIB
                0x02030bf4                hal_auadcBufferGet
                0x02030cd0                hal_auadcBufferfree
                0x02030cfc                hal_auadcBufferGetB
                0x02030dd8                hal_auadcBufferfreeB
                0x02030e04                hal_auadcStop
                0x02030e30                hal_auadcBufferRelease
                0x02030e58                hal_auadcBufferReleaseB
                0x02030e80                hal_auadcUACProcess
                0x02030f60                hal_adcBuffer_prefull
                0x02030fc4                hal_adcBuffer_halffull
                0x02030fdc                hal_adc_volume_set
                0x02030ffc                hal_adc_volume_setB
                0x0203101c                hal_uac_send
                0x02031080                hal_auadcStartForUAC
 .text          0x02031134     0x24b8 ./Debug/src_hal_mjpeg.c.o
                0x020311e4                hal_mjpegStart
                0x02031214                hal_save_frame_isr
                0x02031298                hal_mjpeg_manual_on
                0x0203144c                hal_mjpegCallback_state
                0x02031488                hal_mjpegCallback
                0x0203168c                hal_mjpeg_manual_fdown
                0x02031800                hal_jA_fcnt_get
                0x02031830                hal_mjpeg_mallocbuf
                0x02031850                hal_mjpegSrcCSI
                0x02031994                hal_mjpegSrcRam
                0x020319a8                hal_mjpegSrcColorBar
                0x02031a30                hal_Cut_SDR_SrcCSI
                0x02031b04                hal_mjpegMemInit
                0x02031c08                hal_mjpegMemUninit
                0x02031c68                hal_mjpegEncodeInit
                0x02031cc8                hal_mjpegEncodeUninit
                0x02031d0c                hal_mjpegEncodeResolution
                0x02031d48                hal_mjpegEncodeResolutionImage
                0x02031d84                hal_mjpegSizecalculate
                0x02031db4                hal_mjpegUVCStart
                0x02032090                hal_mjpegPhotoStart
                0x0203234c                hal_mjpegAVIStart
                0x02032628                hal_mjpegAVISetScaler
                0x02032704                hal_mjpegRawDataGet
                0x0203271c                hal_mjpegRawBuffer_prefull
                0x0203278c                hal_mjpegRawBuffer_halffull
                0x020327fc                hal_mjpegRawBufferfree
                0x02032824                hal_mjpegRawBufferGet
                0x0203294c                hal_mjpegRawDataSet
                0x02032974                hal_mjpegHeaderParse
                0x02032fb0                hal_mjpegDecodeGetResolution
                0x02032ff8                hal_mjpegDecodeSetResolution
                0x0203301c                hal_mjpegDecodeStatusCheck
                0x0203303c                hal_mjpegDecodeErrorCheck
                0x0203305c                hal_mjpegDecodeMiniSize
                0x020331e0                hal_mjpegDecodeStop
                0x02033200                hal_mjpegDecodeReset
                0x02033234                hal_mjpegDecodePicture
                0x020332a4                hal_mjpegDecodePicture_2
                0x02033310                hal_mjpegDecodeParse
                0x02033340                hal_mjpegDecodeOneFrame
                0x02033398                hal_mjpegDecodeOneFrame_Ext
                0x02033420                hal_mjpegDecodeRestart_Ext
                0x0203348c                hal_mjpegDecodeOneFrame_Fast
                0x02033550                hal_mjpegDecodeODma1Cfg
                0x02033574                hal_BackRecDecodeStatusCheck
 .text          0x020335ec       0x34 ./Debug/src_hal_int.c.o
                0x020335ec                hal_intInit
 .text          0x02033620        0x0 ./Debug/src_hal_wdt.c.o
 .text          0x02033620      0x42c ./Debug/src_hal_stream.c.o
                0x02033620                hal_streamInit
                0x02033718                hal_streamMalloc
                0x02033800                hal_streamIn_Drop
                0x02033864                hal_streamIn
                0x02033900                hal_streamOut
                0x0203398c                hal_streamfree
                0x02033a34                hal_stream_size
 .text          0x02033a4c       0xd8 ./Debug/src_hal_emi.c.o
                0x02033a90                hal_emiMasterTest
                0x02033adc                hal_emiSlaveTest
 .text          0x02033b24      0xd80 ./Debug/src_hal_mjpegB.c.o
                0x02033b24                cal_jB_1s_size
                0x02033b54                hal_jB_fcnt_get
                0x02033b84                c_stack_setup
                0x02033c74                cache_pre_malloc
                0x02033d5c                cache_put
                0x02033e08                cache_pre_malloc_drop
                0x02033e64                cache_get
                0x02033ee4                cache_free
                0x02033f90                hal_mjpB_usensor_strm_init
                0x02033ff8                hal_mjpB_usensor_adrreload_hal
                0x0203409c                hal_mjpB_usensor_fram_isr
                0x0203416c                hal_mjpB_usensor_fram_free
                0x02034194                hal_mjpB_usensor_fram_rd
                0x020342a4                hal_get_fBcnt
                0x020342d4                hal_mjpBec_sta
                0x020342fc                hal_mjpB_ecoding
                0x02034328                hal_mjpB_ecdown
                0x0203436c                hal_mjpB_photo_fdown
                0x020343a0                hal_mjpB_avi_fdown
                0x020343cc                hal_mjpB_ecdown_err
                0x02034410                hal_mjpB_ecbusy
                0x0203443c                hal_mjpBec_recfg
                0x020344c0                hal_mjpB_manualstart
                0x020344e4                hal_mjpB_avi_fdown_err
                0x02034510                hal_mjpB_isr
                0x020345ac                hal_mjpBMemInit
                0x02034628                hal_mjpegBMemUninit
                0x02034670                api_mjp_avi_stop
                0x020346cc                mjpB_actech_as_photo
                0x02034780                hal_mjpB_actech_as_avi
                0x02034830                hal_mjpB_nextsync
                0x02034854                hal_mjpB_Buffer_prefull
 .text          0x020348a4      0x1a8 ./Debug/src_hal_osdcmp.c.o
                0x0203491c                hal_osdcmpStart
                0x02034a00                hal_osdcmpInit
                0x02034a28                hal_osdcmpCompOneFrame
 .text          0x02034a4c      0x318 ./Debug/src_hal_rotate.c.o
                0x02034be0                hal_rotateInit
                0x02034c34                hal_rotateAdd
 .text          0x02034d64      0xa64 ./Debug/src_hal_lcdframe.c.o
                0x02034d64                hal_lcdAddrCalculate
                0x02034e10                hal_dispframeInit
                0x020353d8                hal_dispframeVideoCfg
                0x0203565c                hal_dispframeMalloc
                0x020356f0                hal_dispframeFree
                0x0203577c                hal_dispframeSetCallback
                0x02035794                hal_dispframeGetFrameNums
 .text          0x020357c8     0x4394 ./Debug/isp_hal_isp.c.o
                0x020357c8                isp_AWB_auto_adj
                0x02035a08                isp_isr_hal
                0x02035ac8                isp_stat_isr_hal
                0x02035b30                dely_ms
                0x02035b64                hal_ispFrameCnt
                0x02035ba4                awb_manual_gain_adapt
                0x02035c38                isp_AWB_manual_adj
                0x02035c84                isp_AWB_adj_cfg
                0x02035d5c                isp_AE_adj_cfg
                0x02035dcc                isp_LSC_adj_cfg
                0x02035e58                awb_scene_mod_set
                0x02035fd0                isp_contra_table_load
                0x02036058                isp_rgbgma_table_load
                0x02036130                isp_gma_table_load
                0x02036208                isp_table_load
                0x02036254                isp_para_config
                0x020365e0                dot_num_stat
                0x02036634                y_sum_stat
                0x020366b4                find_peak
                0x02036764                find_y_of_dotsum
                0x020367f4                get_isp_adapt_val
                0x02036854                get_isp_adapt_val_u8
                0x020368ac                soft_exp
                0x02036c80                hgrm_stat
                0x02036dc8                isp_calculate
                0x02036f5c                isp_adjust
                0x0203753c                sensor_compensate_exp_set
                0x020375f4                isp_get_scen_light
                0x02037614                isp_color_on_off
                0x02037628                sensor_frame_rate_adapt
                0x02037734                sensor_frame_rate_adapt_for_dark
                0x020377cc                isp_process
                0x02037830                isp_process_check
                0x020378a0                sensor_rotate_adapt
                0x020378d4                exp_gain_separate
                0x02037928                exp_br_cal
                0x020379bc                exposal_adj
                0x02037cc4                isp_all_model_cfg
                0x02037d20                hal_ispService
                0x02037de4                hal_isp_sof_loop
                0x0203821c                hal_commom_isr
                0x02038364                init_common_str
                0x02038564                sensor_isp_adapt
                0x02038608                isp_para_init
                0x02038628                isp_init
                0x020386c0                hal_isp_debug_read
                0x020387dc                hal_Sensor_common_Get
                0x02038818                CopyToMember
                0x0203889c                hal_Sensor_common_Set
                0x020393a8                ygama_update
                0x02039430                hal_isp_debug_write
                0x020398e0                awb_update
                0x02039b28                ispReadFlash
 .text          0x02039b5c      0x584 ./Debug/dusb_hal_usb_api.c.o
                0x02039b5c                usb_bulk_tx
                0x02039b88                usb_bulk_rx
                0x02039bb4                hal_usbdReset
                0x02039be4                usb_uvciso_kick
                0x02039c14                usb_uvciso_wait_txdown
                0x02039c38                usb_uaciso_kick
                0x02039c68                usb_uaciso_wait_txdown
                0x02039c8c                uac_on
                0x02039cb4                uac_off
                0x02039cd4                usb_fun_reg
                0x02039e28                hal_usbdInit
                0x02039e68                hal_usbdUninit
                0x02039e98                hal_usbdEnable
                0x02039ec0                hal_usbdUVCProcess
                0x0203a08c                hal_usbdProcess
                0x0203a0c0                hal_usbdCheck
 .text          0x0203a0e0      0xf94 ./Debug/dusb_hal_usb_dev_enum.c.o
                0x0203a0e0                usb_ep0_tx
                0x0203a160                usbdev_stack_init
                0x0203a190                usbdev_rqu
                0x0203a1b8                usbdev_reset
                0x0203a1e4                usb_bot_reset
                0x0203a230                usb_check_faddr
                0x0203a27c                usb_ep0_clrrx_pkt0
                0x0203a2b8                usb_stall_ep
                0x0203a344                usb_clear_ep
                0x0203a3c0                usb_ep0_get_request
                0x0203a408                usb_ep0_transfer
                0x0203a4bc                usb_ep0_receive
                0x0203a514                usb_ep0_get_status
                0x0203a624                usb_ep0_clr_feature
                0x0203a69c                usb_ep0_set_feature
                0x0203a70c                usb_ep0_set_address
                0x0203a7a0                usb_ep0_get_configuration
                0x0203a7f4                usb_ep0_set_configuration
                0x0203a870                usb_ep0_get_interface
                0x0203a8b8                uvc_ready
                0x0203a8e0                uac_ready
                0x0203a908                usb_ep0_set_interface
                0x0203aa5c                usb_ep0_descriptor
                0x0203aac8                usb_ep0_get_descriptor
                0x0203abd8                usb_ep0_standard
                0x0203ac74                usb_ep0_class_get_lun
                0x0203acb8                usb_ep0_class
                0x0203adc0                usb_ep0_request
                0x0203ae0c                usb_ep0_hal
                0x0203af00                enum_epx_cfg
                0x0203afa0                usb_dev_enum_reg
 .text          0x0203b074     0x1508 ./Debug/dusb_hal_usb_msc.c.o
                0x0203b074                msc_epx_cfg
                0x0203b114                ScsiStallAll
                0x0203b19c                ScsiStallIn
                0x0203b20c                ScsiStallout
                0x0203b250                dev_online
                0x0203b280                dev_cap
                0x0203b2ac                dev_stop
                0x0203b2d8                dev_busy
                0x0203b304                dev_free
                0x0203b330                mscSet_Status
                0x0203b36c                Host_In_Data
                0x0203b418                mscCmd_ReadCapacity
                0x0203b4f4                mscCmd_ReadFormatCapacity
                0x0203b5ec                mscCmd_RequestSense
                0x0203b68c                mscCmd_Inquiry
                0x0203b6e4                mscCmd_ModeSense6
                0x0203b770                mscCmd_TestUnitReady
                0x0203b7fc                mscCmd_StartStopUnit
                0x0203b84c                mscCmd_PreventAllowMediumRemoval
                0x0203b88c                mscCmd_Verify
                0x0203b8a4                cb_FIFO2mem
                0x0203b940                cb_mem2FIFO
                0x0203b9cc                cb_mem_read
                0x0203ba44                cb_mem_write
                0x0203bac4                cb_mem_rwex
                0x0203bb00                mscCmd_ufmod
                0x0203bb50                sent_csw
                0x0203bc10                mscCmd_Read
                0x0203bd40                mscCmd_Write
                0x0203be9c                cbw_update
                0x0203c02c                scsi_cmd_analysis
                0x0203c27c                get_cbw
                0x0203c488                rbc_rec_pkg
                0x0203c51c                rbc_process
 .text          0x0203c57c      0x3b8 ./Debug/dusb_hal_usb_uac.c.o
                0x0203c57c                UacReceiveSetSamplingFreqCallback
                0x0203c5bc                uac_epx_cfg
                0x0203c650                uac_unit_ctl_hal
                0x0203c7c8                UacHandleToStreaming
                0x0203c898                uac_start
                0x0203c8f8                uac_stop
 .text          0x0203c934      0x878 ./Debug/dusb_hal_usb_uvc.c.o
                0x0203c934                uvc_video_probe_control_callback
                0x0203c97c                uvc_video_commit_control_callback
                0x0203c9c4                uvc_still_probe_control_callback
                0x0203ca0c                uvc_still_commit_control_callback
                0x0203ca54                uvc_unit_ctl_ex_hal
                0x0203cb14                uvc_unit_ctl_hal
                0x0203cbd4                uvc_video_probe_control
                0x0203cc84                uvc_video_commit_control
                0x0203cd34                uvc_still_probe_control
                0x0203cde4                uvc_still_commit_control
                0x0203ce94                uvc_probe_ctl_hal
                0x0203cf24                uvc_epx_cfg
                0x0203cf78                uvc_on
                0x0203cfd8                uvc_off
                0x0203cffc                uvc_pkg_tx
                0x0203d084                uvc_header
                0x0203d0e0                uvc_header_fill
                0x0203d18c                uvc_get_tgl
 .text          0x0203d1ac      0x46c ./Debug/husb_hal_usb_host_api.c.o
                0x0203d1ac                delay_5ms
                0x0203d1e0                usb11_host_enum
                0x0203d24c                usb_host_fun_reg
                0x0203d29c                hal_husb_init_typeA
                0x0203d310                usb_host_speed_connect
                0x0203d378                usb_host_enum
                0x0203d3bc                uvc_host_dev_detech
                0x0203d3e4                usb_host_remove
                0x0203d434                usb11_host_remove
                0x0203d490                usensor_online
                0x0203d4bc                usb11_host_fun_reg
                0x0203d50c                hal_husb11_init_typeA
                0x0203d580                usb_host_detect
                0x0203d5f4                usb_host_type_set
 .text          0x0203d618      0xa88 ./Debug/husb_hal_usb_host_tpbulk.c.o
                0x0203d618                udisk_actech
                0x0203d648                udisk_state
                0x0203d668                msc_init
                0x0203d7ac                epbulk_send_dat
                0x0203d8f0                epbulk_receive_dat
                0x0203da38                rbc_write_lba
                0x0203db50                cbw_init
                0x0203dba4                rbc_read_lba
                0x0203dca0                spc_inquiry
                0x0203dd54                spc_test_unit_rdy
                0x0203ddec                spc_request_sense
                0x0203de94                rbc_read_capacity
                0x0203dfb8                enum_mass_dev
 .text          0x0203e0a0     0x1120 ./Debug/husb_hal_usb_host_uvc.c.o
                0x0203e0a0                iso_receive_dat11
                0x0203e20c                iso_receive_dat
                0x0203e30c                api_uvc_fcnt_get
                0x0203e33c                huvc_cache_statck_init
                0x0203e3c0                huvc_get_jfillhal
                0x0203e464                huvc_get_jdcodhal
                0x0203e510                huvc_jfill_loadadr
                0x0203e564                huvc_jdcod_load
                0x0203e5d0                huvc_jfill_down
                0x0203e640                huvc_dcod_down
                0x0203e6ac                hal_huvc_strm_init
                0x0203e6cc                usb_usensor_frame_read
                0x0203e784                iso_recive_payload_isr
                0x0203e880                uvc_recevie_jframe_isr
                0x0203ead4                uvc_fstatck_init
                0x0203eb04                uvc_host_init
                0x0203ebec                uvc_actech_as_usensor
                0x0203ec8c                uvc11_actech_as_usensor
                0x0203ed34                uvc_host11_init
                0x0203ee38                iso_recive_payload_isr11
                0x0203ef6c                uvc_recevie_jframe_isr11
 .text          0x0203f1c0      0x6e0 ./Debug/husb_hal_usensor.c.o
                0x0203f1c0                usensor_actech_to_mjpBcodec
                0x0203f248                backrec_adpt
                0x0203f268                backrec_sensor
                0x0203f288                backrec_sensor_stat
                0x0203f2a8                api_usensor_reg_to_mjpBcodec
                0x0203f2c8                usensor_actech
                0x0203f314                api_backrec_linking
                0x0203f37c                api_backrec_relinking
                0x0203f3a4                api_backrec_status
                0x0203f3c4                api_astern_status
                0x0203f3e4                api_astern_set_status
                0x0203f404                save_fst_reverse_mod
                0x0203f430                api_backsta_linking
                0x0203f518                usensor_detach
                0x0203f56c                backrec_stop
                0x0203f5c4                backrec_lowerpower
                0x0203f5e4                hal_mjpB_decoding
                0x0203f610                hal_mjpB_dcdown
                0x0203f63c                mjpBcodec_kick
                0x0203f740                mjpBcodec_sacle_dwon
                0x0203f7f4                pt_uvcframe
                0x0203f808                api_usensor_1S_pollmonitor
 .text          0x0203f8a0      0xa0c ./Debug/audio_audio_playback.c.o
                0x0203f8a0                audioPlaybackInit
                0x0203f9b8                audioPlaybackStop
                0x0203fa44                audioPlaybackISR
                0x0203fbc8                audioPlaybackUninit
                0x0203fc58                audioPlaybackStart
                0x0203fef4                audioPlaybackPuase
                0x0203ff3c                audioPlaybackResume
                0x0203ff80                audioPlaybackGetStatus
                0x0203ffa0                audioPlaybackGetTime
                0x02040074                audioPlaybackSetVolume
                0x020400c8                audioPlaybackGetVolume
                0x020400e8                audioPlaybackService
 .text          0x020402ac      0x4ec ./Debug/audio_audio_record.c.o
                0x020402e0                audioRecordInit
                0x02040384                audioRecordUninit
                0x020403c0                audioRecordStart
                0x020404e8                audioRecordStop
                0x02040558                audioRecordPuase
                0x02040588                audioRecordResume
                0x020405b8                audioRecordGetStatus
                0x020405d8                audioRecordSetStatus
                0x020405f8                audioRecordGetTime
                0x02040618                audioRecordError
                0x02040674                audioRecordService
 .text          0x02040798      0x3e4 ./Debug/audio_ring_buffer.c.o
                0x02040798                ringBufferRead
                0x02040824                ringBufferService
                0x02040998                ringBufferInit
                0x02040a5c                ringBufferSeek
                0x02040b20                ringBufferPoint
                0x02040b5c                ringBufferDataSize
 .text          0x02040b7c     0x1800 ./Debug/video_video_playback.c.o
                0x02040cb0                playBackGetPlayTime
                0x02040cd8                videoPlaybackClear
                0x02040d50                videoPlaybackInit
                0x02040e50                videoPlaybackDecodeWait
                0x02040e9c                videoPlaybackStop
                0x02040f5c                videoPlaybackDacISR
                0x020410cc                videoPlaybackUninit
                0x02041190                videoPlaybackPuase
                0x0204121c                videoPlaybackResume
                0x02041264                videoPlaybackGetStatus
                0x02041284                videoPlaybackSetVolume
                0x020412d8                videoPlaybackGetVolume
                0x020412f8                videoPlaybackGetTime
                0x02041318                videoPlaybackGetResolution
                0x02041334                videoPlaybackService
                0x02041a4c                videoPlaybackStart
                0x02041d64                videoPlaybackFastForward
                0x02041dcc                videoPlaybackFastBackward
                0x02041e34                videoPlaybackThumbnailUninit
                0x02041e6c                videoPlaybackThumbnailProcess
                0x02042030                videoPlaybackThumbnailShow
                0x02042160                videoPlaybackThumbnailInit
                0x020422c4                videoPlaybackThumbnailOne
 .text          0x0204237c     0x1b50 ./Debug/video_video_record.c.o
                0x02042410                video_avi_write
                0x020426ec                videoRecordImageWatermark
                0x02042784                videoRecordInit
                0x020428e0                videoRecordUninit
                0x02042958                videoRecordFileStart
                0x02042af4                videoRecordFileStop
                0x02042c98                videoRecordFileError
                0x02042d08                videoRecordStart
                0x02042f74                videoRecordStop
                0x02043008                videoRecordGetTimeSec
                0x02043048                videoRecordError
                0x020430d4                videoRecordRestart
                0x020431a0                videoRecordRestart2
                0x020431cc                videoRecordPuase
                0x020431e4                videoRecordResume
                0x020431fc                videoRecordGetStatus
                0x0204321c                videoRecordGetTime
                0x02043260                videoRecordService
                0x02043c10                videoRecordCmdSet
                0x02043cec                videoRecordSizePreSec
                0x02043de4                videoRecordTakePhoto
                0x02043e28                videoRecordTakePhotoStatus
                0x02043e48                videoRecordSetPhotoStatus
                0x02043e68                pt_javgsize
                0x02043e7c                videotime_mdf
 .text          0x02043ecc     0x11cc ./Debug/video_video_record_B.c.o
                0x02043ecc                videoRecordImageWatermarkB
                0x02043fc0                videoRecordInitB
                0x020440c8                videoRecordUninitB
                0x0204413c                videoRecordGetStatusB
                0x0204415c                videoRecordGetTimeB
                0x020441a0                videoRecordFileStartB
                0x02044360                videoRecordFileStopB
                0x02044508                videoRecordFileErrorB
                0x0204457c                videoRecordStopB
                0x020445dc                videoRecordErrorB
                0x02044688                videoRecordRestartB
                0x020446c4                videoRecordUpdateAviIdx1B
                0x0204483c                videoRecordServiceB
                0x02045058                test_null_mjp
 .text          0x02045098      0x3dc ./Debug/image_image_decode.c.o
                0x02045098                imageDecodeInit
                0x020450b0                imageDecodeUninit
                0x020450c8                imageDecodeStart
                0x02045450                imageDecodeGetResolution
 .text          0x02045474      0x278 ./Debug/image_image_encode.c.o
                0x02045474                imageEncodeInit
                0x0204548c                imageEncodeUninit
                0x020454a4                imageEncodeStart
                0x020455cc                imageEncodeStartB
 .text          0x020456ec        0x0 ./Debug/wav_alaw.c.o
 .text          0x020456ec        0x0 ./Debug/wav_imaadpcm.c.o
 .text          0x020456ec      0x1e4 ./Debug/wav_pcm.c.o
                0x020456ec                pcm_decode
                0x020457d4                pcm_encode
 .text          0x020458d0        0x0 ./Debug/wav_ulaw.c.o
 .text          0x020458d0      0xbdc ./Debug/wav_wav.c.o
                0x02045924                wavEncodeInit
                0x020459a4                wavEncodeParse
                0x02045c40                wavEncodeEnd
                0x02045d54                wavEncodeGetBlockSize
                0x02045dcc                wavEncodeOneFrame
                0x02045e98                wavEncodeAddSize
                0x02045ed0                wavDecodeInit
                0x02045f18                wavDecodeGetInfo
                0x02045f34                wavDecodeGetBlockSize
                0x02045f64                wavDecodeGetTotalTime
                0x02045f84                wavDecodeGetSamplerate
                0x02045fa4                wavDecodeGetCurTime
                0x02046034                wavDecodeParse
                0x02046384                wavDecodeOneFrame
 .text          0x020464ac      0x190 ./Debug/stream_stream.c.o
                0x020464ac                streamSprintf
                0x020465e0                streamFont
 .text          0x0204663c      0x788 ./Debug/gsensor_G_gma301.c.o
 .text          0x02046dc4      0x3cc ./Debug/gsensor_gsensor.c.o
                0x02046dc4                gsensor_iic_read
                0x02046dec                gsensor_iic_write
                0x02046e18                gsensor_iic_enable
                0x02046e3c                gsensor_iic_disable
                0x02046e5c                gSensorInit
                0x02046f00                gSensorUninit
                0x02046f50                gSensorWakeUpGet
                0x02046f88                gSensorWakeupSet
                0x02046fd8                gSensorActiveGet
                0x02047028                gSensorActiveSet
                0x02047078                gSensorRead
                0x020470bc                gSensorMircoMotionWait
                0x0204715c                gSensorGetName
 .text          0x02047190      0x534 ./Debug/gsensor_G_sc7a30e.c.o
 .text          0x020476c4      0x548 ./Debug/gsensor_g_da380.c.o
 .text          0x02047c0c      0xa5c ./Debug/cmos_sensor_cmos_sensor.c.o
                0x02047c0c                sensor_iic_enable
                0x02047c2c                sensor_iic_disable
                0x02047c40                sensor_iic_write
                0x02047cbc                sensor_iic_read
                0x02047d4c                sensor_iic_info
                0x02047d90                SensorGetName
                0x02047dc4                sensorInit
                0x02048124                uart_to_iic
                0x0204832c                Sensor_DebugRegister
                0x02048398                usb_cut_raw
                0x020483ac                Sensor_common_Get
                0x020483c0                Sensor_common_Set
                0x020483d4                isp_debug_write
                0x020483e8                isp_debug_read
                0x020483fc                sensor_rotato
                0x02048470                cmos_spec_color
 .text          0x02048668        0x0 ./Debug/cmos_sensor_SENSOR_BF3a03.c.o
 .text          0x02048668        0x0 ./Debug/cmos_sensor_SENSOR_BF2013.c.o
 .text          0x02048668        0x0 ./Debug/cmos_sensor_SENSOR_BF3016.c.o
 .text          0x02048668        0x0 ./Debug/cmos_sensor_SENSOR_BF3703.c.o
 .text          0x02048668        0x0 ./Debug/cmos_sensor_SENSOR_GC0307.c.o
 .text          0x02048668        0x0 ./Debug/cmos_sensor_SENSOR_GC0308.c.o
 .text          0x02048668        0x0 ./Debug/cmos_sensor_SENSOR_GC0309.c.o
 .text          0x02048668        0x0 ./Debug/cmos_sensor_SENSOR_GC0328.c.o
 .text          0x02048668        0x0 ./Debug/cmos_sensor_SENSOR_GC1004.c.o
 .text          0x02048668        0x0 ./Debug/cmos_sensor_SENSOR_H42.c.o
 .text          0x02048668        0x0 ./Debug/cmos_sensor_SENSOR_H7640.c.o
 .text          0x02048668        0x0 ./Debug/cmos_sensor_SENSOR_HM1055.c.o
 .text          0x02048668        0x0 ./Debug/cmos_sensor_SENSOR_IT03A1.c.o
 .text          0x02048668        0x0 ./Debug/cmos_sensor_SENSOR_NT99141.c.o
 .text          0x02048668        0x0 ./Debug/cmos_sensor_SENSOR_NT99142.c.o
 .text          0x02048668        0x0 ./Debug/cmos_sensor_SENSOR_OV7670.c.o
 .text          0x02048668        0x0 ./Debug/cmos_sensor_SENSOR_OV7725.c.o
 .text          0x02048668        0x0 ./Debug/cmos_sensor_SENSOR_OV9710.c.o
 .text          0x02048668        0x0 ./Debug/cmos_sensor_SENSOR_OV9732.c.o
 .text          0x02048668        0x0 ./Debug/cmos_sensor_SENSOR_SC1045.c.o
 .text          0x02048668        0x0 ./Debug/cmos_sensor_SENSOR_SIV100B.c.o
 .text          0x02048668        0x0 ./Debug/cmos_sensor_SENSOR_SIV120B.c.o
 .text          0x02048668        0x0 ./Debug/cmos_sensor_SENSOR_SIV121DS.c.o
 .text          0x02048668        0x0 ./Debug/cmos_sensor_SENSOR_SP1409.c.o
 .text          0x02048668      0x258 ./Debug/cmos_sensor_SENSOR_H62.c.o
 .text          0x020488c0        0x0 ./Debug/cmos_sensor_SENSOR_GC1034.c.o
 .text          0x020488c0        0x0 ./Debug/cmos_sensor_SENSOR_OV7736.c.o
 .text          0x020488c0        0x0 ./Debug/cmos_sensor_SENSOR_SP140A.c.o
 .text          0x020488c0        0x0 ./Debug/cmos_sensor_SENSOR_GC1054.c.o
 .text          0x020488c0        0x0 ./Debug/cmos_sensor_SENSOR_GC1064.c.o
 .text          0x020488c0       0xdc ./Debug/cmos_sensor_SENSOR_H65.c.o
 .text          0x0204899c        0x0 ./Debug/cmos_sensor_SENSOR_SC1243.c.o
 .text          0x0204899c      0x234 ./Debug/cmos_sensor_SENSOR_H63.c.o
 .text          0x02048bd0      0x138 ./Debug/cmos_sensor_SENSOR_H63P.c.o
 .text          0x02048d08        0x0 ./Debug/tft_lcd_lcd_mcu_st7789.c.o
 .text          0x02048d08        0x0 ./Debug/tft_lcd_lcd_rgb_jl_lcd.c.o
 .text          0x02048d08        0x0 ./Debug/tft_lcd_lcd_rgb_st7282.c.o
 .text          0x02048d08      0x53c ./Debug/tft_lcd_tft_lcd.c.o
                0x02048d08                lcd_para_init
                0x02048e5c                lcdInit
                0x02048e8c                lcd_header_get
                0x02048eac                devLcdOp_get
                0x02048ecc                LcdGetName
                0x02048f00                lcd_debug_write
                0x02049020                lcd_debug_read
                0x020490e0                lcdreg_debug_toggle
                0x02049130                lcdreg_debug_write
 .text          0x02049244        0x0 ./Debug/tft_lcd_lcd_mcu_5420.c.o
 .text          0x02049244        0x0 ./Debug/tft_lcd_lcd_mcu_r61509v.c.o
 .text          0x02049244        0x0 ./Debug/tft_lcd_lcd_rgb_ili8961.c.o
 .text          0x02049244        0x0 ./Debug/tft_lcd_lcd_rgb_ili9342c.c.o
 .text          0x02049244        0x0 ./Debug/tft_lcd_lcd_mcu_ili9328.c.o
 .text          0x02049244        0x0 ./Debug/tft_lcd_lcd_mcu_hx8352b.c.o
 .text          0x02049244        0x0 ./Debug/tft_lcd_lcd_mcu_st7789v.c.o
 .text          0x02049244        0x0 ./Debug/tft_lcd_lcd_mcu_hx8352c.c.o
 .text          0x02049244        0x0 ./Debug/tft_lcd_lcd_mcu_hx8357b.c.o
 .text          0x02049244        0x0 ./Debug/tft_lcd_lcd_rgb_ili9806e.c.o
 .text          0x02049244        0x0 ./Debug/tft_lcd_lcd_rgb_ota5182.c.o
 .text          0x02049244        0x0 ./Debug/tft_lcd_lcd_rgb_st7701.c.o
 .text          0x02049244        0x0 ./Debug/tft_lcd_lcd_mcu_lgdp4532.c.o
 .text          0x02049244        0x0 ./Debug/tft_lcd_lcd_mcu_9225G.c.o
 .text          0x02049244        0x0 ./Debug/tft_lcd_lcd_mcu_st7789v2.c.o
 .text          0x02049244        0x0 ./Debug/tft_lcd_lcd_mcu_gc9307.c.o
 .text          0x02049244       0xb8 ./Debug/usensor_237a_1.c.o
                0x02049244                usensor_exsrc_update_A1
                0x020492b0                usensor_uispsrc_update_A1
 .text          0x020492fc        0x0 ./Debug/usensor_usensor.c.o
 .text          0x020492fc       0x98 ./Debug/usensor_237a_2.c.o
                0x020492fc                usensor_exsrc_update_A2
                0x02049368                usensor_uispsrc_update_A2
                0x0204937c                usensor_237a_2_patch
 .text          0x02049394      0x2c0 ./Debug/nvfs_nvfs.c.o
                0x02049394                nv_port_read
                0x020493b4                nv_init
                0x0204949c                nv_uninit
                0x020494b4                nv_configAddr
                0x02049510                nv_open
                0x020495a4                nv_size
                0x02049624                nv_read
 .text          0x02049654      0x478 ./Debug/Maxlib_max_user.c.o
                0x02049654                user_string_size_get
                0x02049678                user_string_data_get
                0x02049690                user_get_icon
                0x020496b4                user_get_icon_addr
                0x020496d4                user_get_icon_line
                0x02049720                user_get_iconSize
                0x02049744                lcdBuffCopy
                0x020497fc                useDoubleBuff
                0x02049930                initDrawBuffWH
                0x02049984                getDrawBuff
                0x020499cc                drawUIService
                0x02049a60                drawUIService1
 .text          0x02049acc     0x1c2c ./Debug/Maxlib_uiDraw.c.o
                0x02049acc                resGetImageAddrAndSize
                0x02049aec                preloadIconInit
                0x02049be0                resBuffInit
                0x02049c4c                resBuffUninit
                0x02049ccc                resBuffConut
                0x02049d10                resUpdateIconBuff
                0x02049dac                resGetImageFromIconBuff
                0x02049ee8                resGetImageData
                0x02049f94                resGetStringInfor
                0x0204a04c                resGetCharInfor
                0x0204a150                dcacheFlush
                0x0204a384                drawLine
                0x0204a844                drawRectangle
                0x0204aa98                drawChar
                0x0204ac54                drawNotIntersect
                0x0204adf4                drawImage
                0x0204b228                drawString
 .text          0x0204b6f8      0x300 ./Debug/std_misc.c.o
                0x0204b6f8                CountToString
                0x0204b7e8                stringInster
                0x0204b840                strTransform
                0x0204b8b4                HexToString
                0x0204b93c                NumberToString
 .text          0x0204b9f8       0xd0 ./Debug/std_std_math.c.o
                0x0204b9f8                math_cos
                0x0204ba2c                math_sin
                0x0204ba60                math_abs
                0x0204ba80                math_max
                0x0204baa4                math_min
 .text          0x0204bac8      0x22c ./Debug/std_str.c.o
                0x0204bac8                str_cpy
                0x0204bb04                str_ncpy
                0x0204bb5c                str_char
                0x0204bb98                str_cmp
                0x0204bbf4                str_ncmp
                0x0204bc74                str_len
                0x0204bca4                str_cat
 .text          0x0204bcf4      0x118 ./Debug/res_ascii.c.o
                0x0204bcf4                ascii_draw_get
 .text          0x0204be0c        0x0 ./Debug/res_ascii_default.c.o
 .text          0x0204be0c       0xc0 ./Debug/res_ascii_default_draw.c.o
                0x0204be0c                ascii_default_get
 .text          0x0204becc        0x0 ./Debug/res_ascii_num2.c.o
 .text          0x0204becc       0xc0 ./Debug/res_ascii_num2_draw.c.o
                0x0204becc                ascii_num2_get
 .text          0x0204bf8c        0x0 ./Debug/res_ascii_num3.c.o
 .text          0x0204bf8c       0xc0 ./Debug/res_ascii_num3_draw.c.o
                0x0204bf8c                ascii_num3_get
 .text          0x0204c04c        0x0 ./Debug/res_ascii_num4.c.o
 .text          0x0204c04c       0xc0 ./Debug/res_ascii_num4_draw.c.o
                0x0204c04c                ascii_num4_get
 .text          0x0204c10c      0x7e8 ./Debug/res_R.c.o
                0x0204c10c                R_loadResource
                0x0204c168                R_getData
                0x0204c1bc                R_freeData
                0x0204c1f8                R_getSize
                0x0204c24c                R_getDataAndSize
                0x0204c2a0                R_getTColor
                0x0204c2e0                R_getAsciiCharSize
                0x0204c364                R_getAsciiStringSize
                0x0204c444                R_drawAsciiChar
                0x0204c5bc                R_drawAsciiChar_border
                0x0204c810                R_drawAsciiString
 .text          0x0204c8f4      0x440 ./Debug/res_R_icon.c.o
                0x0204c970                R_iconMemGet
                0x0204c9b8                R_iconLoadResource
                0x0204ca30                R_iconGetData
                0x0204cb24                R_iconGetSize
                0x0204cbe0                R_iconGetDataAndSize
                0x0204cc90                R_iconFreeData
                0x0204cce4                R_iconGetTColor
 .text          0x0204cd34      0x23c ./Debug/res_R_string.c.o
                0x0204cdb0                R_stringLoadResource
                0x0204ce30                R_stringGetData
                0x0204ce94                R_stringGetSize
                0x0204cf3c                R_stringGetDataAndSize
 .text          0x0204cf70        0x0 ./Debug/res_ascii_num5.c.o
 .text          0x0204cf70       0xc0 ./Debug/res_ascii_num5_draw.c.o
                0x0204cf70                ascii_num5_get
 .text          0x0204d030     0x24e8 ../bwlib\libusbh.a(hal_usb_host_enum.o)
                0x0204d030                cnvr
                0x0204d160                husb_desc_devide
                0x0204d270                husb_dev_analysis
                0x0204d504                husb_pidsetup
                0x0204d578                husb_pidin_kick
                0x0204d5c8                husb_pidin_next
                0x0204d62c                husb_pidout
                0x0204d6b4                husb_pidin_get
                0x0204d7b8                husb11_pidsetup
                0x0204d864                husb11_pidin_kick
                0x0204d8d0                husb11_pidin_next
                0x0204d950                husb11_pidout
                0x0204da1c                husb11_pidin_get
                0x0204db7c                get_desc
                0x0204dde8                husb_1st_get_devdsc
                0x0204de48                husb_all_get_devdsc
                0x0204def8                husb_1st_get_cfg_desc
                0x0204df58                husb_all_get_cfg_desc
                0x0204dff0                hsub_get_pcommit_cs100
                0x0204e050                husb_backsta_check
                0x0204e114                husb_ex_237a_iicbusy
                0x0204e200                husb_ex_237a_sensorid
                0x0204e39c                set_desc
                0x0204e4d8                husb_set_devaddr
                0x0204e544                husb_set_cfg
                0x0204e594                husb_set_intfs_0
                0x0204e5f0                husb_set_intfs_1
                0x0204e71c                husb_ex_237a_iiprcfg
                0x0204e7b8                husb_ex_237a_iiccmd
                0x0204e91c                husb_ex_237a_isppointer_run
                0x0204e998                set_dat
                0x0204eb28                hsub_set_pcommit_cs100
                0x0204eb84                hsub_set_pcommit_cs200
                0x0204ebe0                husb_ex_237a_ispdriver_down
                0x0204ed1c                husb_ex_237a_ispexmand_down
                0x0204ee54                husb_ex_237a_isppointer_mdify
                0x0204eef4                husb_ex_237a_exmandcod_down
                0x0204f024                husb_ex_237a_funpointer_mdify
                0x0204f12c                usb_stack_init
                0x0204f1e8                husb_ex_237a_iiprcheck
                0x0204f260                husb_ex_237a_funpointer_run
                0x0204f2d4                husb_kick_ep0isr
                0x0204f31c                husb_ep0isr
                0x0204f408                uhost_backsta_cmd
                0x0204f460                check_backsta
                0x0204f4cc                usb_enum_phase_get
                0x0204f4ec                usb_enum_phase_clr
 .text          0x0204f518      0x6c0 ../bwlib\libsd.a(ax32xx_sd.o)
                0x0204f518                ax32xx_sd0Init
                0x0204f624                ax32xx_sd0Uninit
                0x0204f690                ax32xx_sd0SendCmd
                0x0204f7dc                ax32xx_sd0BusSet
                0x0204f820                ax32xx_sd0Recv
                0x0204f874                ax32xx_sd0Send
                0x0204f8ac                ax32xx_sd0WaitDAT0
                0x0204f93c                ax32xx_sd0WaitPend
                0x0204f9b0                ax32xx_sd0GetRsp
                0x0204f9cc                ax32xx_sdCRCCheck
                0x0204fa2c                ax32xx_sd0Buffer
                0x0204fa48                ax32xx_sdSetFunc
                0x0204fb2c                ax32xx_sd0ClkSet
 .text          0x0204fbd8      0x5a0 ../bwlib\libavi.a(aviEncoder.o)
                0x0204fbd8                aviEncodeInit
                0x0204fcbc                aviEncodeUninit
                0x0204fd58                aviEncodeParse
                0x0204fddc                aviEncodeAddIdx
                0x0204fe58                aviEncodeSetIdx1
                0x0204fed8                aviEncodeFrameTag
                0x0204ff44                aviEncodeAddOffset
                0x0204ff94                aviEncodeGetIdx1Length
                0x0204ffd8                aviEncodeGetFrameCount
                0x0205001c                aviEncodeEnd
                0x02050090                aviEncodeService
                0x02050104                aviEncodeAddofs
 .text          0x02050178      0x554 ../bwlib\libavi.a(encoder_std.o)
                0x020501c0                avi_standardAddIndex
                0x020503a0                avi_standardEnd
 .text          0x020506cc     0x1684 ../bwlib\libavi.a(encoder_odml.o)
                0x02051cf8                avi_odmlAddoffset
 .text          0x02051d50      0x8e0 ../bwlib\libavi.a(aviDecoder.o)
                0x02051d50                aviDecodeIdx1QInit
                0x02051d7c                aviDecodeIdx1Cpy
                0x02051db0                aviDecodeIdx1QIn
                0x02051e2c                aviDecodeIdx1QOut
                0x02051ea8                aviDecodeCacheInit
                0x02051edc                aviDecodeCacheRead
                0x0205200c                aviDecodeInit
                0x02052070                aviDecodeService
                0x020520ac                aviDecodeParse
                0x020524d8                aviDecodeOneFrame
                0x02052514                aviDecodeFast
                0x0205254c                aviDecodeGetTime
                0x02052588                aviDecodeGetAudioSampleRate
                0x020525a8                aviDecodeGetVideoFrameTime
                0x020525c8                aviDecodeGetResolution
                0x02052610                aviDecodeGetFrameIndex
 .text          0x02052630      0x4d4 ../bwlib\libavi.a(decoder_std.o)
 .text          0x02052b04      0x5b8 ../bwlib\libavi.a(decoder_odml.o)
 .text          0x020530bc      0x848 ../bwlib\libfs.a(fs.o)
                0x020530bc                fs_nodeinit
                0x02053118                fs_mount
                0x020531f0                open
                0x020532b8                close
                0x02053330                read
                0x020533a8                write
                0x02053420                lseek
                0x020534a4                fs_readsector
                0x02053524                fs_writesector
                0x020535a4                fs_getsector
                0x02053698                fs_getclustersize
                0x020536bc                fs_getcluster
                0x02053730                fs_size
                0x0205377c                fs_size2
                0x020537c8                fs_free_size
                0x02053818                fs_fastseek_init
                0x02053830                fs_merge
                0x02053848                fs_bound
                0x02053860                fs_tell
                0x020538ac                fs_sync
 .text          0x02053904      0x250 ../bwlib\libfs.a(diskio.o)
                0x02053904                get_fattime
                0x0205397c                fs_init
                0x020539f8                disk_status
                0x02053a38                disk_initialize
                0x02053a74                disk_read
                0x02053ab0                disk_write
                0x02053aec                disk_ioctl
 .text          0x02053b54     0x735c ../bwlib\libfs.a(ff.o)
                0x02055820                clst2sect
                0x020578b4                f_mount
                0x02057964                f_open
                0x02057e0c                f_read
                0x02058104                f_write
                0x02058484                f_sync
                0x02058700                f_close
                0x0205874c                f_lseek
                0x02058bb4                f_opendir
                0x02058ce4                f_closedir
                0x02058d20                f_readdir
                0x02058dc4                f_findnext
                0x02058e68                f_findfirst
                0x02058ebc                f_stat
                0x02058f44                f_getfree
                0x020591a8                f_truncate
                0x02059324                f_unlink
                0x020594a0                f_mkdir
                0x02059734                f_rename
                0x02059a14                f_chmod
                0x02059afc                f_utime
                0x02059be0                f_mkfs
                0x0205ae78                FEX_getlink_clust
 .text.unlikely
                0x0205aeb0       0x30 ../bwlib\libfs.a(ff.o)
 .text          0x0205aee0      0x2a0 ../bwlib\libfs.a(ffunicode.o)
                0x0205aee0                ff_uni2oem
                0x0205afb0                ff_oem2uni
                0x0205b058                ff_wtoupper
 .text          0x0205b180      0x158 C:/MinGW-4.7.1/or1k-elf/lib/no-delay\libc.a(lib_a-memcpy.o)
                0x0205b180                memcpy
 .text          0x0205b2d8      0x15c C:/MinGW-4.7.1/or1k-elf/lib/no-delay\libc.a(lib_a-memset.o)
                0x0205b2d8                memset
 .text          0x0205b434       0xb8 C:/MinGW-4.7.1/or1k-elf/lib/no-delay\libc.a(lib_a-strcat.o)
                0x0205b434                strcat
 .text          0x0205b4ec      0x104 C:/MinGW-4.7.1/or1k-elf/lib/no-delay\libc.a(lib_a-strcmp.o)
                0x0205b4ec                strcmp
 .text          0x0205b5f0       0xc0 C:/MinGW-4.7.1/or1k-elf/lib/no-delay\libc.a(lib_a-strcpy.o)
                0x0205b5f0                strcpy
 .text          0x0205b6b0       0xe4 C:/MinGW-4.7.1/or1k-elf/lib/no-delay\libc.a(lib_a-strlen.o)
                0x0205b6b0                strlen
 .text          0x0205b794      0x178 C:/MinGW-4.7.1/or1k-elf/lib/no-delay\libc.a(lib_a-strncmp.o)
                0x0205b794                strncmp
 .text          0x0205b90c      0x13c C:/MinGW-4.7.1/or1k-elf/lib/no-delay\libc.a(lib_a-strncpy.o)
                0x0205b90c                strncpy
 .text          0x0205ba48      0x7d0 C:/MinGW-4.7.1/lib/gcc/or1k-elf/4.9.1/no-delay\libgcc.a(_udivdi3.o)
                0x0205ba48                __udivdi3
 .text          0x0205c218       0xf4 C:/MinGW-4.7.1/lib/gcc/or1k-elf/4.9.1/no-delay\libgcc.a(__udivsi3.o)
                0x0205c218                __udivsi3
                0x0205c218                __udivsi3_internal
 .text          0x0205c30c       0x1c C:/MinGW-4.7.1/lib/gcc/or1k-elf/4.9.1/no-delay\libgcc.a(__umodsi3.o)
                0x0205c30c                __umodsi3
 .text          0x0205c328        0x0 C:/MinGW-4.7.1/lib/gcc/or1k-elf/4.9.1/no-delay\libgcc.a(_clz.o)
 *(.rodata*)
 .rodata.str1.1
                0x0205c328       0x2b ./Debug/main.c.o
                                 0x2f (size before relaxing)
 .rodata.str1.1
                0x0205c353       0x40 ./Debug/resource_manager.c.o
 .rodata.str1.1
                0x0205c393       0x26 ./Debug/upgrade.c.o
 *fill*         0x0205c3b9        0x3 
 .rodata        0x0205c3bc        0xc ./Debug/board_bwv1.c.o
 .rodata        0x0205c3c8       0x3c ./Debug/display.c.o
 .rodata        0x0205c404      0x238 ./Debug/configGetValue.c.o
 .rodata        0x0205c63c       0x64 ./Debug/configSystem.c.o
 .rodata.str1.1
                0x0205c6a0       0x1f ./Debug/logo.c.o
 .rodata.str1.1
                0x0205c6bf        0xd ./Debug/msgSysUnshielded.c.o
 .rodata.str1.1
                0x0205c6cc        0xd ./Debug/taskPhotoEncode.c.o
                                 0x19 (size before relaxing)
 .rodata.str1.1
                0x0205c6d9       0x18 ./Debug/taskPhotoEncodeMsg.c.o
                                 0x1d (size before relaxing)
 *fill*         0x0205c6f1        0x3 
 .rodata        0x0205c6f4       0x14 ./Debug/taskPhotoEncodeMsg.c.o
 .rodata.str1.1
                0x0205c708        0xa ./Debug/taskPlayBack.c.o
 *fill*         0x0205c712        0x2 
 .rodata        0x0205c714       0x14 ./Debug/taskPlayBackMsg.c.o
 .rodata.str1.1
                0x0205c728       0x1d ./Debug/taskPlayBackMsg.c.o
                                 0x3d (size before relaxing)
 .rodata.str1.1
                0x0205c745        0xa ./Debug/taskPowerOff.c.o
 .rodata.str1.1
                0x0205c74f       0x27 ./Debug/taskSysScanDevice.c.o
                                 0x44 (size before relaxing)
 .rodata.str1.1
                0x0205c776        0xb ./Debug/taskUsbDevice.c.o
 .rodata.str1.1
                0x0205c781        0xe ./Debug/taskVideoRecord.c.o
                                 0x29 (size before relaxing)
 *fill*         0x0205c78f        0x1 
 .rodata        0x0205c790       0x14 ./Debug/taskVideoRecordMsg.c.o
 .rodata.str1.1
                0x00000000       0x11 ./Debug/taskVideoRecordMsg.c.o
 .rodata.str1.1
                0x0205c7a4        0x5 ./Debug/uiAsternMsg.c.o
 *fill*         0x0205c7a9        0x3 
 .rodata        0x0205c7ac        0xc ./Debug/uiMenuDateTimeMsg.c.o
 .rodata.str1.1
                0x0205c7b8       0x15 ./Debug/uiMenuFormatMsg.c.o
                                 0x16 (size before relaxing)
 *fill*         0x0205c7cd        0x3 
 .rodata        0x0205c7d0       0x14 ./Debug/uiMenuItemMsg.c.o
 .rodata.str1.1
                0x00000000        0xd ./Debug/uiMenuItemMsg.c.o
 .rodata.str1.1
                0x00000000       0x15 ./Debug/uiMenuLockCurMsg.c.o
 .rodata.str1.1
                0x00000000        0x2 ./Debug/uiMenuOptionMsg.c.o
 .rodata.str1.1
                0x00000000       0x15 ./Debug/uiMenuUnlockAllMsg.c.o
 .rodata.str1.1
                0x00000000       0x15 ./Debug/uiMenuUnlockCurMsg.c.o
 .rodata.str1.1
                0x00000000        0x2 ./Debug/uiTips1Msg.c.o
 .rodata.str1.1
                0x00000000        0x2 ./Debug/uiTipsMsg.c.o
 .rodata.str1.1
                0x0205c7e4       0x8b ./Debug/uiSelfTestMsg.c.o
                                 0xc5 (size before relaxing)
 .rodata.str1.1
                0x0205c86f        0x9 ./Debug/uiMenuVersionMsg.c.o
 .rodata        0x0205c878       0x18 ./Debug/taskAudioRecordMsg.c.o
 .rodata.str1.1
                0x0205c890        0xe ./Debug/taskAudioRecord.c.o
                                 0x1a (size before relaxing)
 .rodata.str1.1
                0x0205c89e        0xb ./Debug/taskAudioPlay.c.o
 .rodata.str1.1
                0x0205c8a9        0xe ./Debug/taskAudioPlaydMsg.c.o
 *fill*         0x0205c8b7        0x1 
 .rodata        0x0205c8b8       0xd4 ./Debug/uiSelfClockMsg.c.o
 .rodata        0x0205c98c       0x60 ./Debug/sUI_menuItem.c.o
 .rodata        0x0205c9ec       0x60 ./Debug/sUI_menuItemEx.c.o
 .rodata        0x0205ca4c       0x60 ./Debug/sUI_menuOption.c.o
 .rodata        0x0205caac       0x60 ./Debug/sUI_rect.c.o
 .rodata        0x0205cb0c       0x60 ./Debug/sUI_stringIcon.c.o
 .rodata        0x0205cb6c       0x58 ./Debug/sUI_tips.c.o
 .rodata.str1.1
                0x0205cbc4       0x2b ./Debug/sUI_winManage.c.o
 .rodata.str1.1
                0x0205cbef       0x55 ./Debug/sUI_memPool.c.o
 .rodata        0x0205cc44       0xf0 ./Debug/src_ax32xx_int.c.o
 .rodata        0x0205cd34       0x18 ./Debug/src_ax32xx_sys.c.o
 .rodata        0x0205cd4c       0x60 ./Debug/src_ax32xx_dma.c.o
                0x0205cd4c                default_cfg
 .rodata        0x0205cdac       0x4c ./Debug/src_ax32xx_gpio.c.o
 .rodata        0x0205cdf8       0x4c ./Debug/src_ax32xx_dac.c.o
                0x0205cdf8                gain
                0x0205ce0c                eq_coeff
 .rodata        0x0205ce44      0x150 ./Debug/src_ax32xx_isp.c.o
                0x0205cea8                GAOS3X3_TAB
                0x0205cecc                GAOS5X5_TAB
                0x0205cf30                LOG_TAB
 .rodata        0x0205cf94      0x9c0 ./Debug/src_jpeg_table.c.o
 .rodata        0x0205d954       0x30 ./Debug/src_ax32xx_usb.c.o
                0x0205d954                ExRADR
                0x0205d96c                ExTADR
 .rodata        0x0205d984       0xa0 ./Debug/osd_ax32xx_osd.c.o
 .rodata.str1.1
                0x0205da24      0x2f2 ./Debug/mjpeg_ax32xx_mjpeg.c.o
 *fill*         0x0205dd16        0x2 
 .rodata        0x0205dd18      0x1b4 ./Debug/mjpeg_ax32xx_mjpeg.c.o
                0x0205dd2c                bicCtab
                0x0205dd4c                c_table_chroma
                0x0205dd8c                belta_table_chroma
                0x0205ddcc                alpha_table_chroma
                0x0205de0c                c_table_luma
                0x0205de4c                belta_table_luma
                0x0205de8c                alpha_table_luma
 .rodata        0x0205decc       0x2c ./Debug/src_hal_dac.c.o
 .rodata        0x0205def8        0xc ./Debug/src_hal_rtc.c.o
 .rodata        0x0205df04       0x14 ./Debug/src_hal_mjpeg.c.o
 .rodata        0x0205df18       0x14 ./Debug/src_hal_lcdframe.c.o
 *fill*         0x0205df2c       0x14 
 .rodata        0x0205df40      0x480 ./Debug/isp_hal_isp.c.o
                0x0205e2a0                Ratio_of_Evstep
 .rodata.str1.1
                0x00000000      0x2f2 ./Debug/isp_hal_isp.c.o
                                  0x7 (size before relaxing)
 .rodata        0x0205e3c0      0x4e8 ./Debug/dusb_hal_usb_dev_enum.c.o
                0x0205e404                DEV_QAULIFIER_DESC_DATA
                0x0205e410                UsbStrDescSerialNumber
                0x0205e430                UsbStrDescProduct_0
                0x0205e450                UsbStrDescProduct_1
                0x0205e470                UsbStrDescManufacturer
                0x0205e480                UsbLanguageID
                0x0205e484                TYPE_COMB_CONFIG
                0x0205e674                uvc_cfg
                0x0205e84c                msc_cfg
                0x0205e86c                TYPE_COMB_DEVICE
                0x0205e880                uvc_dev
                0x0205e894                msc_dev
 .rodata        0x0205e8a8       0x30 ./Debug/dusb_hal_usb_msc.c.o
                0x0205e8a8                MscSenseCode
                0x0205e8b4                device_inquiry_data
 .rodata        0x0205e8d8        0x8 ./Debug/dusb_hal_usb_uac.c.o
                0x0205e8d8                UacVolCtrlSettings_def
 .rodata        0x0205e8e0      0xcbc ./Debug/dusb_hal_usb_uvc.c.o
                0x0205e8e0                probe
                0x0205e908                pu_rqu_ex
                0x0205eaac                pu_rqu
 .rodata        0x0205f59c        0xc ./Debug/video_video_playback.c.o
 .rodata        0x0205f5a8       0x48 ./Debug/video_video_record.c.o
                0x0205f5a8                picB_size
                0x0205f5c0                pic_size
 .rodata        0x0205f5f0      0x144 ./Debug/wav_wav.c.o
 .rodata        0x0205f734       0x20 ./Debug/gsensor_G_gma301.c.o
 .rodata.str1.1
                0x0205f754        0x5 ./Debug/gsensor_gsensor.c.o
 *fill*         0x0205f759        0x3 
 .rodata        0x0205f75c        0xc ./Debug/gsensor_gsensor.c.o
 .rodata        0x0205f768       0x20 ./Debug/gsensor_G_sc7a30e.c.o
 .rodata        0x0205f788       0x20 ./Debug/gsensor_g_da380.c.o
 .rodata.str1.1
                0x0205f7a8       0x12 ./Debug/cmos_sensor_cmos_sensor.c.o
                                 0x17 (size before relaxing)
 *fill*         0x0205f7ba        0x2 
 .rodata        0x0205f7bc      0xcac ./Debug/cmos_sensor_cmos_sensor.c.o
                0x0205f7bc                null_init
                0x0205f80c                test_img
 .rodata        0x02060468       0x28 ./Debug/cmos_sensor_SENSOR_H62.c.o
 .rodata        0x02060490       0x20 ./Debug/cmos_sensor_SENSOR_H65.c.o
 .rodata        0x020604b0       0x28 ./Debug/cmos_sensor_SENSOR_H63.c.o
 .rodata        0x020604d8       0x20 ./Debug/cmos_sensor_SENSOR_H63P.c.o
 .rodata.str1.1
                0x00000000        0x5 ./Debug/tft_lcd_tft_lcd.c.o
 .rodata        0x020604f8      0x448 ./Debug/usensor_237a_1.c.o
                0x020604f8                driver_237a_1
                0x02060928                driver_pfun_cfg
                0x02060930                exmand_pfun_cfg
 .rodata        0x02060940      0xa24 ./Debug/usensor_usensor.c.o
                0x02060940                ex_OV3660_cmd
                0x02060950                ex_GC0307_cmd
                0x02060960                ex_OV2640_cmd
                0x020609a0                EX_OV3660InitTable
                0x02060d6c                EX_GC0307InitTable
                0x02060e28                EX_OV7670InitTable
                0x02060f04                EX_OV2640InitTable
                0x020611d4                EX_7375SInitTable
                0x02061310                EX_SIV100BInitTable
 .rodata        0x02061364       0x20 ./Debug/usensor_237a_2.c.o
                0x02061364                exmand_pfun_cfg_A2
 .rodata        0x02061384      0x5a0 ./Debug/std_std_math.c.o
 .rodata        0x02061924      0xd38 ./Debug/res_ascii_default.c.o
                0x02061924                ascii_default_126
                0x02061948                ascii_default_125
                0x0206196c                ascii_default_124
                0x02061990                ascii_default_123
                0x020619b4                ascii_default_122
                0x020619d8                ascii_default_121
                0x020619fc                ascii_default_120
                0x02061a20                ascii_default_119
                0x02061a44                ascii_default_118
                0x02061a68                ascii_default_117
                0x02061a8c                ascii_default_116
                0x02061ab0                ascii_default_115
                0x02061ad4                ascii_default_114
                0x02061af8                ascii_default_113
                0x02061b1c                ascii_default_112
                0x02061b40                ascii_default_111
                0x02061b64                ascii_default_110
                0x02061b88                ascii_default_109
                0x02061bac                ascii_default_108
                0x02061bd0                ascii_default_107
                0x02061bf4                ascii_default_106
                0x02061c18                ascii_default_105
                0x02061c3c                ascii_default_104
                0x02061c60                ascii_default_103
                0x02061c84                ascii_default_102
                0x02061ca8                ascii_default_101
                0x02061ccc                ascii_default_100
                0x02061cf0                ascii_default_99
                0x02061d14                ascii_default_98
                0x02061d38                ascii_default_97
                0x02061d5c                ascii_default_96
                0x02061d80                ascii_default_95
                0x02061da4                ascii_default_94
                0x02061dc8                ascii_default_93
                0x02061dec                ascii_default_92
                0x02061e10                ascii_default_91
                0x02061e34                ascii_default_90
                0x02061e58                ascii_default_89
                0x02061e7c                ascii_default_88
                0x02061ea0                ascii_default_87
                0x02061ec4                ascii_default_86
                0x02061ee8                ascii_default_85
                0x02061f0c                ascii_default_84
                0x02061f30                ascii_default_83
                0x02061f54                ascii_default_82
                0x02061f78                ascii_default_81
                0x02061f9c                ascii_default_80
                0x02061fc0                ascii_default_79
                0x02061fe4                ascii_default_78
                0x02062008                ascii_default_77
                0x0206202c                ascii_default_76
                0x02062050                ascii_default_75
                0x02062074                ascii_default_74
                0x02062098                ascii_default_73
                0x020620bc                ascii_default_72
                0x020620e0                ascii_default_71
                0x02062104                ascii_default_70
                0x02062128                ascii_default_69
                0x0206214c                ascii_default_68
                0x02062170                ascii_default_67
                0x02062194                ascii_default_66
                0x020621b8                ascii_default_65
                0x020621dc                ascii_default_64
                0x02062200                ascii_default_63
                0x02062224                ascii_default_62
                0x02062248                ascii_default_61
                0x0206226c                ascii_default_60
                0x02062290                ascii_default_59
                0x020622b4                ascii_default_58
                0x020622d8                ascii_default_57
                0x020622fc                ascii_default_56
                0x02062320                ascii_default_55
                0x02062344                ascii_default_54
                0x02062368                ascii_default_53
                0x0206238c                ascii_default_52
                0x020623b0                ascii_default_51
                0x020623d4                ascii_default_50
                0x020623f8                ascii_default_49
                0x0206241c                ascii_default_48
                0x02062440                ascii_default_47
                0x02062464                ascii_default_46
                0x02062488                ascii_default_45
                0x020624ac                ascii_default_44
                0x020624d0                ascii_default_43
                0x020624f4                ascii_default_42
                0x02062518                ascii_default_41
                0x0206253c                ascii_default_40
                0x02062560                ascii_default_39
                0x02062584                ascii_default_38
                0x020625a8                ascii_default_37
                0x020625cc                ascii_default_36
                0x020625f0                ascii_default_35
                0x02062614                ascii_default_33
                0x02062638                ascii_default_32
 .rodata        0x0206265c     0x18f8 ./Debug/res_ascii_num2.c.o
                0x0206265c                ascii_num2_126
                0x020626a0                ascii_num2_125
                0x020626e4                ascii_num2_124
                0x02062728                ascii_num2_123
                0x0206276c                ascii_num2_122
                0x020627b0                ascii_num2_121
                0x020627f4                ascii_num2_120
                0x02062838                ascii_num2_119
                0x0206287c                ascii_num2_118
                0x020628c0                ascii_num2_117
                0x02062904                ascii_num2_116
                0x02062948                ascii_num2_115
                0x0206298c                ascii_num2_114
                0x020629d0                ascii_num2_113
                0x02062a14                ascii_num2_112
                0x02062a58                ascii_num2_111
                0x02062a9c                ascii_num2_110
                0x02062ae0                ascii_num2_109
                0x02062b24                ascii_num2_108
                0x02062b68                ascii_num2_107
                0x02062bac                ascii_num2_106
                0x02062bf0                ascii_num2_105
                0x02062c34                ascii_num2_104
                0x02062c78                ascii_num2_103
                0x02062cbc                ascii_num2_102
                0x02062d00                ascii_num2_101
                0x02062d44                ascii_num2_100
                0x02062d88                ascii_num2_99
                0x02062dcc                ascii_num2_98
                0x02062e10                ascii_num2_97
                0x02062e54                ascii_num2_96
                0x02062e98                ascii_num2_95
                0x02062edc                ascii_num2_94
                0x02062f20                ascii_num2_93
                0x02062f64                ascii_num2_92
                0x02062fa8                ascii_num2_91
                0x02062fec                ascii_num2_90
                0x02063030                ascii_num2_89
                0x02063074                ascii_num2_88
                0x020630b8                ascii_num2_87
                0x020630fc                ascii_num2_86
                0x02063140                ascii_num2_85
                0x02063184                ascii_num2_84
                0x020631c8                ascii_num2_83
                0x0206320c                ascii_num2_82
                0x02063250                ascii_num2_81
                0x02063294                ascii_num2_80
                0x020632d8                ascii_num2_79
                0x0206331c                ascii_num2_78
                0x02063360                ascii_num2_77
                0x020633a4                ascii_num2_76
                0x020633e8                ascii_num2_75
                0x0206342c                ascii_num2_74
                0x02063470                ascii_num2_73
                0x020634b4                ascii_num2_72
                0x020634f8                ascii_num2_71
                0x0206353c                ascii_num2_70
                0x02063580                ascii_num2_69
                0x020635c4                ascii_num2_68
                0x02063608                ascii_num2_67
                0x0206364c                ascii_num2_66
                0x02063690                ascii_num2_65
                0x020636d4                ascii_num2_64
                0x02063718                ascii_num2_63
                0x0206375c                ascii_num2_62
                0x020637a0                ascii_num2_61
                0x020637e4                ascii_num2_60
                0x02063828                ascii_num2_59
                0x0206386c                ascii_num2_58
                0x020638b0                ascii_num2_57
                0x020638f4                ascii_num2_56
                0x02063938                ascii_num2_55
                0x0206397c                ascii_num2_54
                0x020639c0                ascii_num2_53
                0x02063a04                ascii_num2_52
                0x02063a48                ascii_num2_51
                0x02063a8c                ascii_num2_50
                0x02063ad0                ascii_num2_49
                0x02063b14                ascii_num2_48
                0x02063b58                ascii_num2_47
                0x02063b9c                ascii_num2_46
                0x02063be0                ascii_num2_45
                0x02063c24                ascii_num2_44
                0x02063c68                ascii_num2_43
                0x02063cac                ascii_num2_42
                0x02063cf0                ascii_num2_41
                0x02063d34                ascii_num2_40
                0x02063d78                ascii_num2_39
                0x02063dbc                ascii_num2_38
                0x02063e00                ascii_num2_37
                0x02063e44                ascii_num2_36
                0x02063e88                ascii_num2_35
                0x02063ecc                ascii_num2_33
                0x02063f10                ascii_num2_32
 .rodata        0x02063f54     0x52b8 ./Debug/res_ascii_num3.c.o
                0x02063f54                ascii_num3_126
                0x02064058                ascii_num3_125
                0x020640dc                ascii_num3_124
                0x02064160                ascii_num3_123
                0x020641e4                ascii_num3_122
                0x020642a8                ascii_num3_121
                0x0206436c                ascii_num3_120
                0x02064430                ascii_num3_119
                0x02064534                ascii_num3_118
                0x020645f8                ascii_num3_117
                0x020646fc                ascii_num3_116
                0x02064780                ascii_num3_115
                0x02064844                ascii_num3_114
                0x020648c8                ascii_num3_113
                0x020649cc                ascii_num3_112
                0x02064ad0                ascii_num3_111
                0x02064bd4                ascii_num3_110
                0x02064cd8                ascii_num3_109
                0x02064e1c                ascii_num3_108
                0x02064ea0                ascii_num3_107
                0x02064f64                ascii_num3_106
                0x02064fe8                ascii_num3_105
                0x0206506c                ascii_num3_104
                0x02065170                ascii_num3_103
                0x02065274                ascii_num3_102
                0x020652f8                ascii_num3_101
                0x020653fc                ascii_num3_100
                0x02065500                ascii_num3_99
                0x020655c4                ascii_num3_98
                0x020656c8                ascii_num3_97
                0x020657cc                ascii_num3_96
                0x02065850                ascii_num3_95
                0x02065914                ascii_num3_94
                0x020659d8                ascii_num3_93
                0x02065a5c                ascii_num3_92
                0x02065ae0                ascii_num3_91
                0x02065b64                ascii_num3_90
                0x02065c68                ascii_num3_89
                0x02065d6c                ascii_num3_88
                0x02065e70                ascii_num3_87
                0x02065ff4                ascii_num3_86
                0x020660f8                ascii_num3_85
                0x020661fc                ascii_num3_84
                0x02066300                ascii_num3_83
                0x02066404                ascii_num3_82
                0x02066508                ascii_num3_81
                0x0206664c                ascii_num3_80
                0x02066750                ascii_num3_79
                0x02066894                ascii_num3_78
                0x02066998                ascii_num3_77
                0x02066adc                ascii_num3_76
                0x02066be0                ascii_num3_75
                0x02066ce4                ascii_num3_74
                0x02066da8                ascii_num3_73
                0x02066e2c                ascii_num3_72
                0x02066f30                ascii_num3_71
                0x02067074                ascii_num3_70
                0x02067178                ascii_num3_69
                0x0206727c                ascii_num3_68
                0x02067380                ascii_num3_67
                0x02067484                ascii_num3_66
                0x02067588                ascii_num3_65
                0x0206768c                ascii_num3_64
                0x02067810                ascii_num3_63
                0x02067914                ascii_num3_62
                0x02067a18                ascii_num3_61
                0x02067b1c                ascii_num3_60
                0x02067c20                ascii_num3_59
                0x02067ca4                ascii_num3_58
                0x02067d28                ascii_num3_57
                0x02067e2c                ascii_num3_56
                0x02067f30                ascii_num3_55
                0x02068034                ascii_num3_54
                0x02068138                ascii_num3_53
                0x0206823c                ascii_num3_52
                0x02068340                ascii_num3_51
                0x02068444                ascii_num3_50
                0x02068548                ascii_num3_49
                0x0206864c                ascii_num3_48
                0x02068750                ascii_num3_47
                0x020687d4                ascii_num3_46
                0x02068858                ascii_num3_45
                0x020688dc                ascii_num3_44
                0x02068960                ascii_num3_43
                0x02068a64                ascii_num3_42
                0x02068b28                ascii_num3_41
                0x02068bac                ascii_num3_40
                0x02068c30                ascii_num3_39
                0x02068cb4                ascii_num3_38
                0x02068db8                ascii_num3_37
                0x02068efc                ascii_num3_36
                0x02069000                ascii_num3_35
                0x02069104                ascii_num3_33
                0x02069188                ascii_num3_32
 .rodata        0x0206920c     0x76f8 ./Debug/res_ascii_num4.c.o
                0x0206920c                ascii_num4_126
                0x02069350                ascii_num4_125
                0x02069494                ascii_num4_124
                0x020695d8                ascii_num4_123
                0x0206971c                ascii_num4_122
                0x02069860                ascii_num4_121
                0x020699a4                ascii_num4_120
                0x02069ae8                ascii_num4_119
                0x02069c2c                ascii_num4_118
                0x02069d70                ascii_num4_117
                0x02069eb4                ascii_num4_116
                0x02069ff8                ascii_num4_115
                0x0206a13c                ascii_num4_114
                0x0206a280                ascii_num4_113
                0x0206a3c4                ascii_num4_112
                0x0206a508                ascii_num4_111
                0x0206a64c                ascii_num4_110
                0x0206a790                ascii_num4_109
                0x0206a8d4                ascii_num4_108
                0x0206aa18                ascii_num4_107
                0x0206ab5c                ascii_num4_106
                0x0206aca0                ascii_num4_105
                0x0206ade4                ascii_num4_104
                0x0206af28                ascii_num4_103
                0x0206b06c                ascii_num4_102
                0x0206b1b0                ascii_num4_101
                0x0206b2f4                ascii_num4_100
                0x0206b438                ascii_num4_99
                0x0206b57c                ascii_num4_98
                0x0206b6c0                ascii_num4_97
                0x0206b804                ascii_num4_96
                0x0206b948                ascii_num4_95
                0x0206ba8c                ascii_num4_94
                0x0206bbd0                ascii_num4_93
                0x0206bd14                ascii_num4_92
                0x0206be58                ascii_num4_91
                0x0206bf9c                ascii_num4_90
                0x0206c0e0                ascii_num4_89
                0x0206c224                ascii_num4_88
                0x0206c368                ascii_num4_87
                0x0206c4ac                ascii_num4_86
                0x0206c5f0                ascii_num4_85
                0x0206c734                ascii_num4_84
                0x0206c878                ascii_num4_83
                0x0206c9bc                ascii_num4_82
                0x0206cb00                ascii_num4_81
                0x0206cc44                ascii_num4_80
                0x0206cd88                ascii_num4_79
                0x0206cecc                ascii_num4_78
                0x0206d010                ascii_num4_77
                0x0206d154                ascii_num4_76
                0x0206d298                ascii_num4_75
                0x0206d3dc                ascii_num4_74
                0x0206d520                ascii_num4_73
                0x0206d664                ascii_num4_72
                0x0206d7a8                ascii_num4_71
                0x0206d8ec                ascii_num4_70
                0x0206da30                ascii_num4_69
                0x0206db74                ascii_num4_68
                0x0206dcb8                ascii_num4_67
                0x0206ddfc                ascii_num4_66
                0x0206df40                ascii_num4_65
                0x0206e084                ascii_num4_64
                0x0206e1c8                ascii_num4_63
                0x0206e30c                ascii_num4_62
                0x0206e450                ascii_num4_61
                0x0206e594                ascii_num4_60
                0x0206e6d8                ascii_num4_59
                0x0206e81c                ascii_num4_58
                0x0206e960                ascii_num4_57
                0x0206eaa4                ascii_num4_56
                0x0206ebe8                ascii_num4_55
                0x0206ed2c                ascii_num4_54
                0x0206ee70                ascii_num4_53
                0x0206efb4                ascii_num4_52
                0x0206f0f8                ascii_num4_51
                0x0206f23c                ascii_num4_50
                0x0206f380                ascii_num4_49
                0x0206f4c4                ascii_num4_48
                0x0206f608                ascii_num4_47
                0x0206f74c                ascii_num4_46
                0x0206f890                ascii_num4_45
                0x0206f9d4                ascii_num4_44
                0x0206fb18                ascii_num4_43
                0x0206fc5c                ascii_num4_42
                0x0206fda0                ascii_num4_41
                0x0206fee4                ascii_num4_40
                0x02070028                ascii_num4_39
                0x0207016c                ascii_num4_38
                0x020702b0                ascii_num4_37
                0x020703f4                ascii_num4_36
                0x02070538                ascii_num4_35
                0x0207067c                ascii_num4_33
                0x020707c0                ascii_num4_32
 .rodata        0x02070904     0xc358 ./Debug/res_ascii_num5.c.o
                0x02070904                ascii_num5_126
                0x02070b18                ascii_num5_125
                0x02070d2c                ascii_num5_124
                0x02070f40                ascii_num5_123
                0x02071154                ascii_num5_122
                0x02071368                ascii_num5_121
                0x0207157c                ascii_num5_120
                0x02071790                ascii_num5_119
                0x020719a4                ascii_num5_118
                0x02071bb8                ascii_num5_117
                0x02071dcc                ascii_num5_116
                0x02071fe0                ascii_num5_115
                0x020721f4                ascii_num5_114
                0x02072408                ascii_num5_113
                0x0207261c                ascii_num5_112
                0x02072830                ascii_num5_111
                0x02072a44                ascii_num5_110
                0x02072c58                ascii_num5_109
                0x02072e6c                ascii_num5_108
                0x02073080                ascii_num5_107
                0x02073294                ascii_num5_106
                0x020734a8                ascii_num5_105
                0x020736bc                ascii_num5_104
                0x020738d0                ascii_num5_103
                0x02073ae4                ascii_num5_102
                0x02073cf8                ascii_num5_101
                0x02073f0c                ascii_num5_100
                0x02074120                ascii_num5_99
                0x02074334                ascii_num5_98
                0x02074548                ascii_num5_97
                0x0207475c                ascii_num5_96
                0x02074970                ascii_num5_95
                0x02074b84                ascii_num5_94
                0x02074d98                ascii_num5_93
                0x02074fac                ascii_num5_92
                0x020751c0                ascii_num5_91
                0x020753d4                ascii_num5_90
                0x020755e8                ascii_num5_89
                0x020757fc                ascii_num5_88
                0x02075a10                ascii_num5_87
                0x02075c24                ascii_num5_86
                0x02075e38                ascii_num5_85
                0x0207604c                ascii_num5_84
                0x02076260                ascii_num5_83
                0x02076474                ascii_num5_82
                0x02076688                ascii_num5_81
                0x0207689c                ascii_num5_80
                0x02076ab0                ascii_num5_79
                0x02076cc4                ascii_num5_78
                0x02076ed8                ascii_num5_77
                0x020770ec                ascii_num5_76
                0x02077300                ascii_num5_75
                0x02077514                ascii_num5_74
                0x02077728                ascii_num5_73
                0x0207793c                ascii_num5_72
                0x02077b50                ascii_num5_71
                0x02077d64                ascii_num5_70
                0x02077f78                ascii_num5_69
                0x0207818c                ascii_num5_68
                0x020783a0                ascii_num5_67
                0x020785b4                ascii_num5_66
                0x020787c8                ascii_num5_65
                0x020789dc                ascii_num5_64
                0x02078bf0                ascii_num5_63
                0x02078e04                ascii_num5_62
                0x02079018                ascii_num5_61
                0x0207922c                ascii_num5_60
                0x02079440                ascii_num5_59
                0x02079654                ascii_num5_58
                0x02079868                ascii_num5_57
                0x02079a7c                ascii_num5_56
                0x02079c90                ascii_num5_55
                0x02079ea4                ascii_num5_54
                0x0207a0b8                ascii_num5_53
                0x0207a2cc                ascii_num5_52
                0x0207a4e0                ascii_num5_51
                0x0207a6f4                ascii_num5_50
                0x0207a908                ascii_num5_49
                0x0207ab1c                ascii_num5_48
                0x0207ad30                ascii_num5_47
                0x0207af44                ascii_num5_46
                0x0207b158                ascii_num5_45
                0x0207b36c                ascii_num5_44
                0x0207b580                ascii_num5_43
                0x0207b794                ascii_num5_42
                0x0207b9a8                ascii_num5_41
                0x0207bbbc                ascii_num5_40
                0x0207bdd0                ascii_num5_39
                0x0207bfe4                ascii_num5_38
                0x0207c1f8                ascii_num5_37
                0x0207c40c                ascii_num5_36
                0x0207c620                ascii_num5_35
                0x0207c834                ascii_num5_33
                0x0207ca48                ascii_num5_32
 .rodata        0x0207cc5c      0x400 ../bwlib\libusbh.a(hal_usb_host_enum.o)
                0x0207cc5c                isp_husbfun
                0x0207ce5c                user_husbfun
 .rodata.str1.1
                0x0207d05c       0x74 ../bwlib\libfs.a(fs.o)
                                 0x75 (size before relaxing)
 .rodata.str1.1
                0x0207d0d0       0x5a ../bwlib\libfs.a(ff.o)
 *fill*         0x0207d12a        0x2 
 .rodata        0x0207d12c       0x30 ../bwlib\libfs.a(ff.o)
 .rodata        0x0207d15c     0xe9c4 ../bwlib\libfs.a(ffunicode.o)
 .rodata        0x0208bb20      0x100 C:/MinGW-4.7.1/lib/gcc/or1k-elf/4.9.1/no-delay\libgcc.a(_clz.o)
                0x0208bb20                __clz_tab
 *(.data*)
 .data          0x0208bc20        0x0 ./Debug/ax32xx_reset.S.o
 .data          0x0208bc20        0x0 ./Debug/ax32xx_spi_boot_cfg.S.o
 .data          0x0208bc20        0x0 ./Debug/ax32xx_BLDRX32.S.o
 .data          0x0208bc20        0x0 ./Debug/main.c.o
 .data          0x0208bc20        0x0 ./Debug/resource_manager.c.o
 .data          0x0208bc20       0x14 ./Debug/upgrade.c.o
                0x0208bc20                taskUpgrade
 .data          0x0208bc34        0x8 ./Debug/board.c.o
 .data          0x0208bc3c      0x114 ./Debug/board_bwv1.c.o
                0x0208bc48                board_bwv1
                0x0208bd38                adckeyInfor
 .data          0x0208bd50        0x0 ./Debug/config.c.o
 .data          0x0208bd50        0x4 ./Debug/display.c.o
                0x0208bd50                cropLevels
 .data          0x0208bd54        0x0 ./Debug/explorer.c.o
 .data          0x0208bd54       0x48 ./Debug/filelist.c.o
                0x0208bd54                filelist
 .data          0x0208bd9c        0x0 ./Debug/font.c.o
 .data          0x0208bd9c        0x0 ./Debug/icon.c.o
 .data          0x0208bd9c        0x0 ./Debug/board_fpga.c.o
 .data          0x0208bd9c        0x0 ./Debug/configGetValue.c.o
 .data          0x0208bd9c        0x0 ./Debug/configSystem.c.o
 .data          0x0208bd9c        0x0 ./Debug/logo.c.o
 .data          0x0208bd9c      0x318 ./Debug/menuMovieRec.c.o
                0x0208bd9c                menumovie
                0x0208bda8                menuPagemovie
                0x0208bdbc                menuItemmultiplePagesTest
                0x0208bde4                menuItemmovie
                0x0208bf24                menuOptionversion
                0x0208bf2c                menuOptionscreenSave
                0x0208bf4c                menuOptionirLed
                0x0208bf64                menuOptionfrequency
                0x0208bf74                menuOptionlanguage
                0x0208bf94                menuOptionautoPowerOff
                0x0208bfac                menuOptionkeySound
                0x0208bfbc                menuOptiongsensor
                0x0208bfdc                menuOptiontimeStamp
                0x0208bfec                menuOptionparking
                0x0208bffc                menuOptionsensor
                0x0208c00c                menuOptionmd
                0x0208c01c                menuOptionev
                0x0208c044                menuOptionawb
                0x0208c06c                menuOptionloopRecord
                0x0208c08c                menuOptionphotoResolution
                0x0208c0a4                menuOptionvidResolution
 .data          0x0208c0b4       0x90 ./Debug/menuPlayBack.c.o
                0x0208c0b4                menuplayBack2
                0x0208c0c0                menuplayBack
                0x0208c0cc                menuPageplayBack2
                0x0208c0e0                menuPageplayBack
                0x0208c0f4                menuItemplayBack2
                0x0208c11c                menuItemplayBack
 .data          0x0208c144        0x0 ./Debug/msgDeal.c.o
 .data          0x0208c144       0x38 ./Debug/msgSysRecommend.c.o
                0x0208c144                sysRecommendMsgDeal
 .data          0x0208c17c       0xb0 ./Debug/msgSysUnshielded.c.o
                0x0208c17c                sysUnshieldedMsgDeal
 .data          0x0208c22c        0x0 ./Debug/taskManage.c.o
 .data          0x0208c22c       0x14 ./Debug/taskPhotoEncode.c.o
                0x0208c22c                taskPhotoEncode
 .data          0x0208c240      0x26c ./Debug/taskPhotoEncodeMsg.c.o
                0x0208c240                photoEncodeWindow
                0x0208c250                photoEncodeMsgDeal
 .data          0x0208c4ac       0x14 ./Debug/taskPlayBack.c.o
                0x0208c4ac                taskPlayBack
 .data          0x0208c4c0      0x2a4 ./Debug/taskPlayBackMsg.c.o
                0x0208c4c0                playBackWindow
                0x0208c4d0                playBackMsgDeal
 .data          0x0208c764       0x14 ./Debug/taskPowerOff.c.o
                0x0208c764                taskPowerOff
 .data          0x0208c778       0x18 ./Debug/taskSysScanDevice.c.o
                0x0208c788                g_switchValue_temp
 .data          0x0208c790       0x4c ./Debug/taskUsbDevice.c.o
                0x0208c790                usbDeviceMsgDeal
                0x0208c7c8                taskUsbDevice
 .data          0x0208c7dc       0x18 ./Debug/taskVideoRecord.c.o
                0x0208c7dc                taskVideoRecorde
                0x0208c7f0                photoFd
 .data          0x0208c7f4      0x314 ./Debug/taskVideoRecordMsg.c.o
                0x0208c810                videoRecordWindow
                0x0208c820                videoRecordeMsgDeal
 .data          0x0208cb08        0x0 ./Debug/toolFunc.c.o
 .data          0x0208cb08       0xc8 ./Debug/uiAsternMsg.c.o
                0x0208cb08                asternWindow
                0x0208cb18                asternMsgDeal
 .data          0x0208cbd0       0xe4 ./Debug/uiMenuDateTimeMsg.c.o
                0x0208cbd0                dateTimeWindow
                0x0208cbe0                dateTimeMsgDeal
 .data          0x0208ccb4      0x110 ./Debug/uiMenuDefaultMsg.c.o
                0x0208ccb4                defaultWindow
                0x0208ccc4                defaultMsgDeal
 .data          0x0208cdc4      0x110 ./Debug/uiMenuDelAllMsg.c.o
                0x0208cdc4                delAllWindow
                0x0208cdd4                delAllMsgDeal
 .data          0x0208ced4      0x110 ./Debug/uiMenuDelCurMsg.c.o
                0x0208ced4                delCurWindow
                0x0208cee4                delCurMsgDeal
 .data          0x0208cfe4      0x110 ./Debug/uiMenuFormatMsg.c.o
                0x0208cfe4                formatWindow
                0x0208cff4                formatMsgDeal
 .data          0x0208d0f4      0x1e8 ./Debug/uiMenuItemMsg.c.o
                0x0208d0f4                menuItemWindow
                0x0208d104                menuItemMsgDeal
 .data          0x0208d2dc      0x118 ./Debug/uiMenuLockCurMsg.c.o
                0x0208d2dc                lockCurWindow
                0x0208d2ec                lockCurMsgDeal
 .data          0x0208d3f4      0x170 ./Debug/uiMenuOptionMsg.c.o
                0x0208d3f4                menuOptionWindow
                0x0208d404                menuOptionMsgDeal
 .data          0x0208d564      0x110 ./Debug/uiMenuUnlockAllMsg.c.o
                0x0208d564                unlockAllWindow
                0x0208d574                unlockAllMsgDeal
 .data          0x0208d674      0x110 ./Debug/uiMenuUnlockCurMsg.c.o
                0x0208d674                unlockCurWindow
                0x0208d684                unlockCurMsgDeal
 .data          0x0208d784       0xec ./Debug/uiMenuUsbMsg.c.o
                0x0208d784                menuUsbWindow
                0x0208d794                menuUsbMsgDeal
 .data          0x0208d870      0x104 ./Debug/uiNoFileMsg.c.o
                0x0208d870                noFileWindow
                0x0208d880                noFileMsgDeal
 .data          0x0208d974      0x134 ./Debug/uiTips1Msg.c.o
                0x0208d974                tips1Window
                0x0208d984                tips1MsgDeal
 .data          0x0208daa8      0x100 ./Debug/uiTipsMsg.c.o
                0x0208daa8                tipsWindow
                0x0208dab8                tipsMsgDeal
 .data          0x0208dba8        0x0 ./Debug/uiWin.c.o
 .data          0x0208dba8      0x440 ./Debug/uiSelfTestMsg.c.o
                0x0208dbcc                selfTestWindow
                0x0208dbdc                selfTestMsgDeal
 .data          0x0208dfe8      0x100 ./Debug/uiMenuVersionMsg.c.o
                0x0208dfe8                versionWindow
                0x0208dff8                verisonMsgDeal
 .data          0x0208e0e8      0x3d8 ./Debug/taskAudioRecordMsg.c.o
                0x0208e0e8                audioRecordWindow
                0x0208e0f8                audioRecordeMsgDeal
                0x0208e178                g_audio_state_flag
 .data          0x0208e4c0       0x14 ./Debug/taskAudioRecord.c.o
                0x0208e4c0                taskAudioRecorde
 .data          0x0208e4d4       0x14 ./Debug/taskAudioPlay.c.o
                0x0208e4d4                taskAudioPlay
 .data          0x0208e4e8      0x10c ./Debug/taskAudioPlaydMsg.c.o
                0x0208e4e8                audioPlayWindow
                0x0208e4f8                audioPlayMsgDeal
 .data          0x0208e5f4      0x41c ./Debug/uiSelfClockMsg.c.o
                0x0208e5f4                selfclockWindow
                0x0208e604                SelfClockMsgDeal
 .data          0x0208ea10      0x110 ./Debug/uiMenuDelAllMsg2.c.o
                0x0208ea10                delAllWindow2
                0x0208ea20                delAllMsgDeal2
 .data          0x0208eb20        0x0 ./Debug/uiMenuDelAllRes2.c.o
 .data          0x0208eb20      0x110 ./Debug/uiMenuDelCurMsg2.c.o
                0x0208eb20                delCurWindow2
                0x0208eb30                delCurMsgDeal2
 .data          0x0208ec30        0x0 ./Debug/uiMenuDelCurRes2.c.o
 .data          0x0208ec30        0x0 ./Debug/xos_x_cpu.c.o
 .data          0x0208ec30        0x0 ./Debug/xos_xmbox.c.o
 .data          0x0208ec30        0x0 ./Debug/xos_xmsgq.c.o
 .data          0x0208ec30        0x0 ./Debug/xos_xos.c.o
 .data          0x0208ec30        0x0 ./Debug/xos_xwork.c.o
 .data          0x0208ec30        0x0 ./Debug/multimedia_user_media.c.o
 .data          0x0208ec30        0x0 ./Debug/sUI_button.c.o
 .data          0x0208ec30        0x0 ./Debug/sUI_dialog.c.o
 .data          0x0208ec30        0x0 ./Debug/sUI_frameWin.c.o
 .data          0x0208ec30        0x0 ./Debug/sUI_imageIcon.c.o
 .data          0x0208ec30        0x0 ./Debug/sUI_itemManage.c.o
 .data          0x0208ec30        0x0 ./Debug/sUI_menuItem.c.o
 .data          0x0208ec30        0x0 ./Debug/sUI_menuItemEx.c.o
 .data          0x0208ec30        0x0 ./Debug/sUI_menuOption.c.o
 .data          0x0208ec30        0x0 ./Debug/sUI_progressBar.c.o
 .data          0x0208ec30        0x0 ./Debug/sUI_rect.c.o
 .data          0x0208ec30        0x0 ./Debug/sUI_stringIcon.c.o
 .data          0x0208ec30        0x0 ./Debug/sUI_tips.c.o
 .data          0x0208ec30        0x0 ./Debug/sUI_uiAlloc.c.o
 .data          0x0208ec30        0x0 ./Debug/sUI_widget.c.o
 .data          0x0208ec30        0x0 ./Debug/sUI_winManage.c.o
 .data          0x0208ec30        0x0 ./Debug/sUI_memPool.c.o
 .data          0x0208ec30        0x0 ./Debug/src_ax32xx_int.c.o
 .data          0x0208ec30        0x0 ./Debug/src_ax32xx_sys.c.o
 .data          0x0208ec30        0x0 ./Debug/src_ax32xx_dma.c.o
 .data          0x0208ec30        0x0 ./Debug/src_ax32xx_wdt.c.o
 .data          0x0208ec30        0x0 ./Debug/src_ax32xx_gpio.c.o
 .data          0x0208ec30        0x0 ./Debug/src_ax32xx_uart.c.o
 .data          0x0208ec30        0x0 ./Debug/src_ax32xx_timer.c.o
 .data          0x0208ec30        0x0 ./Debug/src_ax32xx_tminf.c.o
 .data          0x0208ec30        0x0 ./Debug/src_ax32xx_spi.c.o
 .data          0x0208ec30        0x0 ./Debug/src_ax32xx_rtc.c.o
 .data          0x0208ec30        0x0 ./Debug/src_ax32xx_md.c.o
 .data          0x0208ec30        0x0 ./Debug/src_ax32xx_iic.c.o
 .data          0x0208ec30        0x0 ./Debug/src_ax32xx_dac.c.o
 .data          0x0208ec30        0x0 ./Debug/src_ax32xx_adc.c.o
 .data          0x0208ec30        0x0 ./Debug/src_ax32xx_auadc.c.o
 .data          0x0208ec30        0x0 ./Debug/src_ax32xx_isp.c.o
 .data          0x0208ec30        0x0 ./Debug/src_jpeg_table.c.o
 .data          0x0208ec30       0x24 ./Debug/src_isp_tab.c.o
                0x0208ec30                color_cpr_step
                0x0208ec44                ylogstep
 .data          0x0208ec54        0x0 ./Debug/src_ax32xx_usb.c.o
 .data          0x0208ec54        0x0 ./Debug/src_ax32xx_misc.c.o
 .data          0x0208ec54        0x0 ./Debug/src_ax32xx_pip.c.o
 .data          0x0208ec54        0x0 ./Debug/src_ax32xx_btuart.c.o
 .data          0x0208ec54        0x0 ./Debug/src_ax32xx_crc.c.o
 .data          0x0208ec54        0x0 ./Debug/src_ax32xx_emi.c.o
 .data          0x0208ec54        0x0 ./Debug/src_ax32xx_rotate.c.o
 .data          0x0208ec54        0x0 ./Debug/src_ax32xx_osdcmp.c.o
 .data          0x0208ec54        0x0 ./Debug/osd_ax32xx_osd.c.o
 .data          0x0208ec54        0x0 ./Debug/csi_ax32xx_csi.c.o
 .data          0x0208ec54        0x4 ./Debug/lcd_ax32xx_lcd.c.o
 .data          0x0208ec58        0x0 ./Debug/mjpeg_ax32xx_mjpeg.c.o
 .data          0x0208ec58      0xca8 ./Debug/resource_user_icon.c.o
                0x0208ec58                User_Icon_Table
 .data          0x0208f900      0x9f0 ./Debug/resource_user_str.c.o
                0x0208f900                User_String_Table
 .data          0x020902f0        0x0 ./Debug/src_hal_adc.c.o
 .data          0x020902f0        0x0 ./Debug/src_hal_csi.c.o
 .data          0x020902f0        0x0 ./Debug/src_hal_dac.c.o
 .data          0x020902f0        0x0 ./Debug/src_hal_eeprom.c.o
 .data          0x020902f0        0x0 ./Debug/src_hal_gpio.c.o
 .data          0x020902f0        0x0 ./Debug/src_hal_iic.c.o
 .data          0x020902f0       0x40 ./Debug/src_hal_lcd.c.o
 .data          0x02090330        0x0 ./Debug/src_hal_md.c.o
 .data          0x02090330        0x0 ./Debug/src_hal_osd.c.o
 .data          0x02090330        0x0 ./Debug/src_hal_rtc.c.o
 .data          0x02090330        0x0 ./Debug/src_hal_sd.c.o
 .data          0x02090330        0x0 ./Debug/src_hal_spi.c.o
 .data          0x02090330        0x0 ./Debug/src_hal_timer.c.o
 .data          0x02090330        0x0 ./Debug/src_hal_uart.c.o
 .data          0x02090330       0x3c ./Debug/src_hal_watermark.c.o
 .data          0x0209036c        0x0 ./Debug/src_hal_sys.c.o
 .data          0x0209036c        0x0 ./Debug/src_hal_auadc.c.o
 .data          0x0209036c        0x0 ./Debug/src_hal_mjpeg.c.o
 .data          0x0209036c        0x0 ./Debug/src_hal_int.c.o
 .data          0x0209036c        0x0 ./Debug/src_hal_wdt.c.o
 .data          0x0209036c        0x0 ./Debug/src_hal_stream.c.o
 .data          0x0209036c       0x20 ./Debug/src_hal_emi.c.o
 .data          0x0209038c        0x0 ./Debug/src_hal_mjpegB.c.o
 .data          0x0209038c        0x0 ./Debug/src_hal_osdcmp.c.o
 .data          0x0209038c        0x0 ./Debug/src_hal_rotate.c.o
 .data          0x0209038c        0x0 ./Debug/src_hal_lcdframe.c.o
 .data          0x0209038c        0x4 ./Debug/isp_hal_isp.c.o
 .data          0x02090390        0x0 ./Debug/dusb_hal_usb_api.c.o
 .data          0x02090390        0x0 ./Debug/dusb_hal_usb_dev_enum.c.o
 .data          0x02090390        0x0 ./Debug/dusb_hal_usb_msc.c.o
 .data          0x02090390        0x0 ./Debug/dusb_hal_usb_uac.c.o
 .data          0x02090390       0x28 ./Debug/dusb_hal_usb_uvc.c.o
                0x02090390                UVC_Still_Probe_Commit
                0x0209039c                uvc_video_probe_commit_value
 .data          0x020903b8        0x0 ./Debug/husb_hal_usb_host_api.c.o
 .data          0x020903b8        0x0 ./Debug/husb_hal_usb_host_tpbulk.c.o
 .data          0x020903b8        0x0 ./Debug/husb_hal_usb_host_uvc.c.o
 .data          0x020903b8        0x0 ./Debug/husb_hal_usensor.c.o
 .data          0x020903b8        0x0 ./Debug/audio_audio_playback.c.o
 .data          0x020903b8        0x0 ./Debug/audio_audio_record.c.o
 .data          0x020903b8        0x0 ./Debug/audio_ring_buffer.c.o
 .data          0x020903b8        0x0 ./Debug/video_video_playback.c.o
 .data          0x020903b8        0x0 ./Debug/video_video_record.c.o
 .data          0x020903b8        0x0 ./Debug/video_video_record_B.c.o
 .data          0x020903b8        0x0 ./Debug/image_image_decode.c.o
 .data          0x020903b8        0x0 ./Debug/image_image_encode.c.o
 .data          0x020903b8        0x0 ./Debug/wav_alaw.c.o
 .data          0x020903b8        0x0 ./Debug/wav_imaadpcm.c.o
 .data          0x020903b8        0x0 ./Debug/wav_pcm.c.o
 .data          0x020903b8        0x0 ./Debug/wav_ulaw.c.o
 .data          0x020903b8        0x0 ./Debug/wav_wav.c.o
 .data          0x020903b8        0x0 ./Debug/stream_stream.c.o
 .data          0x020903b8       0x1c ./Debug/gsensor_G_gma301.c.o
                0x020903b8                gma301
 .data          0x020903d4        0x0 ./Debug/gsensor_gsensor.c.o
 .data          0x020903d4       0x1c ./Debug/gsensor_G_sc7a30e.c.o
                0x020903d4                sc7a30e
 .data          0x020903f0       0x1c ./Debug/gsensor_g_da380.c.o
                0x020903f0                da380
 .data          0x0209040c        0x0 ./Debug/cmos_sensor_cmos_sensor.c.o
 .data          0x0209040c        0x0 ./Debug/cmos_sensor_SENSOR_BF3a03.c.o
 .data          0x0209040c        0x0 ./Debug/cmos_sensor_SENSOR_BF2013.c.o
 .data          0x0209040c        0x0 ./Debug/cmos_sensor_SENSOR_BF3016.c.o
 .data          0x0209040c        0x0 ./Debug/cmos_sensor_SENSOR_BF3703.c.o
 .data          0x0209040c        0x0 ./Debug/cmos_sensor_SENSOR_GC0307.c.o
 .data          0x0209040c        0x0 ./Debug/cmos_sensor_SENSOR_GC0308.c.o
 .data          0x0209040c        0x0 ./Debug/cmos_sensor_SENSOR_GC0309.c.o
 .data          0x0209040c        0x0 ./Debug/cmos_sensor_SENSOR_GC0328.c.o
 .data          0x0209040c        0x0 ./Debug/cmos_sensor_SENSOR_GC1004.c.o
 .data          0x0209040c        0x0 ./Debug/cmos_sensor_SENSOR_H42.c.o
 .data          0x0209040c        0x0 ./Debug/cmos_sensor_SENSOR_H7640.c.o
 .data          0x0209040c        0x0 ./Debug/cmos_sensor_SENSOR_HM1055.c.o
 .data          0x0209040c        0x0 ./Debug/cmos_sensor_SENSOR_IT03A1.c.o
 .data          0x0209040c        0x0 ./Debug/cmos_sensor_SENSOR_NT99141.c.o
 .data          0x0209040c        0x0 ./Debug/cmos_sensor_SENSOR_NT99142.c.o
 .data          0x0209040c        0x0 ./Debug/cmos_sensor_SENSOR_OV7670.c.o
 .data          0x0209040c        0x0 ./Debug/cmos_sensor_SENSOR_OV7725.c.o
 .data          0x0209040c        0x0 ./Debug/cmos_sensor_SENSOR_OV9710.c.o
 .data          0x0209040c        0x0 ./Debug/cmos_sensor_SENSOR_OV9732.c.o
 .data          0x0209040c        0x0 ./Debug/cmos_sensor_SENSOR_SC1045.c.o
 .data          0x0209040c        0x0 ./Debug/cmos_sensor_SENSOR_SIV100B.c.o
 .data          0x0209040c        0x0 ./Debug/cmos_sensor_SENSOR_SIV120B.c.o
 .data          0x0209040c        0x0 ./Debug/cmos_sensor_SENSOR_SIV121DS.c.o
 .data          0x0209040c        0x0 ./Debug/cmos_sensor_SENSOR_SP1409.c.o
 .data          0x0209040c        0x0 ./Debug/cmos_sensor_SENSOR_H62.c.o
 .data          0x0209040c        0x0 ./Debug/cmos_sensor_SENSOR_GC1034.c.o
 .data          0x0209040c        0x0 ./Debug/cmos_sensor_SENSOR_OV7736.c.o
 .data          0x0209040c        0x0 ./Debug/cmos_sensor_SENSOR_SP140A.c.o
 .data          0x0209040c        0x0 ./Debug/cmos_sensor_SENSOR_GC1054.c.o
 .data          0x0209040c        0x0 ./Debug/cmos_sensor_SENSOR_GC1064.c.o
 .data          0x0209040c        0x0 ./Debug/cmos_sensor_SENSOR_H65.c.o
 .data          0x0209040c        0x0 ./Debug/cmos_sensor_SENSOR_SC1243.c.o
 .data          0x0209040c        0x0 ./Debug/cmos_sensor_SENSOR_H63.c.o
 .data          0x0209040c        0x0 ./Debug/cmos_sensor_SENSOR_H63P.c.o
 .data          0x0209040c        0x0 ./Debug/tft_lcd_lcd_mcu_st7789.c.o
 .data          0x0209040c        0x0 ./Debug/tft_lcd_lcd_rgb_jl_lcd.c.o
 .data          0x0209040c        0x0 ./Debug/tft_lcd_lcd_rgb_st7282.c.o
 .data          0x0209040c        0x0 ./Debug/tft_lcd_tft_lcd.c.o
 .data          0x0209040c        0x0 ./Debug/tft_lcd_lcd_mcu_5420.c.o
 .data          0x0209040c        0x0 ./Debug/tft_lcd_lcd_mcu_r61509v.c.o
 .data          0x0209040c        0x0 ./Debug/tft_lcd_lcd_rgb_ili8961.c.o
 .data          0x0209040c        0x0 ./Debug/tft_lcd_lcd_rgb_ili9342c.c.o
 .data          0x0209040c        0x0 ./Debug/tft_lcd_lcd_mcu_ili9328.c.o
 .data          0x0209040c        0x0 ./Debug/tft_lcd_lcd_mcu_hx8352b.c.o
 .data          0x0209040c        0x0 ./Debug/tft_lcd_lcd_mcu_st7789v.c.o
 .data          0x0209040c        0x0 ./Debug/tft_lcd_lcd_mcu_hx8352c.c.o
 .data          0x0209040c        0x0 ./Debug/tft_lcd_lcd_mcu_hx8357b.c.o
 .data          0x0209040c        0x0 ./Debug/tft_lcd_lcd_rgb_ili9806e.c.o
 .data          0x0209040c        0x0 ./Debug/tft_lcd_lcd_rgb_ota5182.c.o
 .data          0x0209040c        0x0 ./Debug/tft_lcd_lcd_rgb_st7701.c.o
 .data          0x0209040c        0x0 ./Debug/tft_lcd_lcd_mcu_lgdp4532.c.o
 .data          0x0209040c        0x0 ./Debug/tft_lcd_lcd_mcu_9225G.c.o
 .data          0x0209040c        0x0 ./Debug/tft_lcd_lcd_mcu_st7789v2.c.o
 .data          0x0209040c        0x0 ./Debug/tft_lcd_lcd_mcu_gc9307.c.o
 .data          0x0209040c      0x66c ./Debug/usensor_237a_1.c.o
                0x0209040c                exmand_code
 .data          0x02090a78       0x1c ./Debug/usensor_usensor.c.o
                0x02090a78                sensor_cmd_tab
 .data          0x02090a94      0x43c ./Debug/usensor_237a_2.c.o
                0x02090a94                exmand_code_A2
 .data          0x02090ed0        0x0 ./Debug/nvfs_nvfs.c.o
 .data          0x02090ed0        0x0 ./Debug/Maxlib_max_user.c.o
 .data          0x02090ed0      0x104 ./Debug/Maxlib_uiDraw.c.o
 .data          0x02090fd4        0x0 ./Debug/std_misc.c.o
 .data          0x02090fd4        0x0 ./Debug/std_std_math.c.o
 .data          0x02090fd4        0x0 ./Debug/std_str.c.o
 .data          0x02090fd4        0x0 ./Debug/res_ascii.c.o
 .data          0x02090fd4        0x0 ./Debug/res_ascii_default.c.o
 .data          0x02090fd4      0x178 ./Debug/res_ascii_default_draw.c.o
                0x02090fd4                ascii_default_table
 .data          0x0209114c        0x0 ./Debug/res_ascii_num2.c.o
 .data          0x0209114c      0x178 ./Debug/res_ascii_num2_draw.c.o
                0x0209114c                ascii_num2_table
 .data          0x020912c4        0x0 ./Debug/res_ascii_num3.c.o
 .data          0x020912c4      0x178 ./Debug/res_ascii_num3_draw.c.o
                0x020912c4                ascii_num3_table
 .data          0x0209143c        0x0 ./Debug/res_ascii_num4.c.o
 .data          0x0209143c      0x178 ./Debug/res_ascii_num4_draw.c.o
                0x0209143c                ascii_num4_table
 .data          0x020915b4        0x0 ./Debug/res_R.c.o
 .data          0x020915b4        0x0 ./Debug/res_R_icon.c.o
 .data          0x020915b4        0x0 ./Debug/res_R_string.c.o
 .data          0x020915b4        0x0 ./Debug/res_ascii_num5.c.o
 .data          0x020915b4      0x178 ./Debug/res_ascii_num5_draw.c.o
                0x020915b4                ascii_num5_table
 .data          0x0209172c        0x0 ../bwlib\libusbh.a(hal_usb_host_enum.o)
 .data          0x0209172c        0x0 ../bwlib\libsd.a(ax32xx_sd.o)
 .data          0x0209172c        0x0 ../bwlib\libavi.a(aviEncoder.o)
 .data          0x0209172c       0x18 ../bwlib\libavi.a(encoder_std.o)
                0x0209172c                avi_encoder_std
 .data          0x02091744       0x18 ../bwlib\libavi.a(encoder_odml.o)
                0x02091744                avi_encoder_odml
 .data          0x0209175c        0x0 ../bwlib\libavi.a(aviDecoder.o)
 .data          0x0209175c       0x14 ../bwlib\libavi.a(decoder_std.o)
                0x0209175c                avi_standard
 .data          0x02091770       0x14 ../bwlib\libavi.a(decoder_odml.o)
                0x02091770                avi_opendml
 .data          0x02091784        0x0 ../bwlib\libfs.a(fs.o)
 .data          0x02091784        0x0 ../bwlib\libfs.a(diskio.o)
 .data          0x02091784        0x0 ../bwlib\libfs.a(ff.o)
 .data          0x02091784        0x0 ../bwlib\libfs.a(ffunicode.o)
 .data          0x02091784        0x0 C:/MinGW-4.7.1/or1k-elf/lib/no-delay\libc.a(lib_a-memcpy.o)
 .data          0x02091784        0x0 C:/MinGW-4.7.1/or1k-elf/lib/no-delay\libc.a(lib_a-memset.o)
 .data          0x02091784        0x0 C:/MinGW-4.7.1/or1k-elf/lib/no-delay\libc.a(lib_a-strcat.o)
 .data          0x02091784        0x0 C:/MinGW-4.7.1/or1k-elf/lib/no-delay\libc.a(lib_a-strcmp.o)
 .data          0x02091784        0x0 C:/MinGW-4.7.1/or1k-elf/lib/no-delay\libc.a(lib_a-strcpy.o)
 .data          0x02091784        0x0 C:/MinGW-4.7.1/or1k-elf/lib/no-delay\libc.a(lib_a-strlen.o)
 .data          0x02091784        0x0 C:/MinGW-4.7.1/or1k-elf/lib/no-delay\libc.a(lib_a-strncmp.o)
 .data          0x02091784        0x0 C:/MinGW-4.7.1/or1k-elf/lib/no-delay\libc.a(lib_a-strncpy.o)
 .data          0x02091784        0x0 C:/MinGW-4.7.1/lib/gcc/or1k-elf/4.9.1/no-delay\libgcc.a(_udivdi3.o)
 .data          0x02091784        0x0 C:/MinGW-4.7.1/lib/gcc/or1k-elf/4.9.1/no-delay\libgcc.a(__udivsi3.o)
 .data          0x02091784        0x0 C:/MinGW-4.7.1/lib/gcc/or1k-elf/4.9.1/no-delay\libgcc.a(__umodsi3.o)
 .data          0x02091784        0x0 C:/MinGW-4.7.1/lib/gcc/or1k-elf/4.9.1/no-delay\libgcc.a(_clz.o)
                0x02091784                _text_end = .

.bss            0x02091784    0xe3c34 load address 0x00093784
                0x02091784                __bss_start = .
 *(.bss*)
 .bss           0x02091784        0x0 ./Debug/ax32xx_reset.S.o
 .bss           0x02091784        0x0 ./Debug/ax32xx_spi_boot_cfg.S.o
 .bss           0x02091784        0x0 ./Debug/ax32xx_BLDRX32.S.o
 .bss           0x02091784       0x58 ./Debug/main.c.o
                0x02091784                recordIncrease1S
                0x02091788                sysPowerOn
 .bss           0x020917dc       0x88 ./Debug/resource_manager.c.o
 .bss           0x02091864        0x0 ./Debug/upgrade.c.o
 .bss           0x02091864        0x0 ./Debug/board.c.o
 .bss           0x02091864       0x40 ./Debug/board_bwv1.c.o
                0x02091864                g_key_cnt
                0x02091865                key_clock_flag
                0x02091868                keyADCvalue
 *fill*         0x020918a4       0x1c 
 .bss           0x020918c0      0x220 ./Debug/config.c.o
 .bss           0x02091ae0       0x30 ./Debug/display.c.o
 .bss           0x02091b10        0x0 ./Debug/explorer.c.o
 .bss           0x02091b10     0x8088 ./Debug/filelist.c.o
 .bss           0x02099b98      0x12c ./Debug/font.c.o
 .bss           0x02099cc4       0x14 ./Debug/icon.c.o
 .bss           0x02099cd8        0x0 ./Debug/board_fpga.c.o
 .bss           0x02099cd8        0x0 ./Debug/configGetValue.c.o
 .bss           0x02099cd8        0x4 ./Debug/configSystem.c.o
 .bss           0x02099cdc        0x0 ./Debug/logo.c.o
 .bss           0x02099cdc        0x0 ./Debug/menuMovieRec.c.o
 .bss           0x02099cdc        0x0 ./Debug/menuPlayBack.c.o
 .bss           0x02099cdc      0x158 ./Debug/msgDeal.c.o
 .bss           0x02099e34        0x0 ./Debug/msgSysRecommend.c.o
 .bss           0x02099e34        0x8 ./Debug/msgSysUnshielded.c.o
 .bss           0x02099e3c       0x34 ./Debug/taskManage.c.o
 .bss           0x02099e70        0x1 ./Debug/taskPhotoEncode.c.o
                0x02099e70                photoPipMode
 *fill*         0x02099e71        0x3 
 .bss           0x02099e74        0x8 ./Debug/taskPhotoEncodeMsg.c.o
                0x02099e74                Photo_flag
 .bss           0x02099e7c        0x4 ./Debug/taskPlayBack.c.o
 .bss           0x02099e80       0x1c ./Debug/taskPlayBackMsg.c.o
 .bss           0x02099e9c        0x0 ./Debug/taskPowerOff.c.o
 .bss           0x02099e9c       0x50 ./Debug/taskSysScanDevice.c.o
                0x02099e9c                g_adc_flag
                0x02099ea0                g_md_delay_times
 .bss           0x02099eec        0x0 ./Debug/taskUsbDevice.c.o
 .bss           0x02099eec       0x10 ./Debug/taskVideoRecord.c.o
                0x02099eec                photoname
 .bss           0x02099efc       0x24 ./Debug/taskVideoRecordMsg.c.o
                0x02099efc                cut_sdr_data_addr
                0x02099f00                cut_sdr_data_en
 .bss           0x02099f20        0x0 ./Debug/toolFunc.c.o
 .bss           0x02099f20        0x0 ./Debug/uiAsternMsg.c.o
 .bss           0x02099f20       0x54 ./Debug/uiMenuDateTimeMsg.c.o
 .bss           0x02099f74        0x0 ./Debug/uiMenuDefaultMsg.c.o
 .bss           0x02099f74        0x0 ./Debug/uiMenuDelAllMsg.c.o
 .bss           0x02099f74        0x0 ./Debug/uiMenuDelCurMsg.c.o
 .bss           0x02099f74        0x0 ./Debug/uiMenuFormatMsg.c.o
 .bss           0x02099f74        0x8 ./Debug/uiMenuItemMsg.c.o
 .bss           0x02099f7c        0x0 ./Debug/uiMenuLockCurMsg.c.o
 .bss           0x02099f7c        0x4 ./Debug/uiMenuOptionMsg.c.o
 .bss           0x02099f80        0x0 ./Debug/uiMenuUnlockAllMsg.c.o
 .bss           0x02099f80        0x0 ./Debug/uiMenuUnlockCurMsg.c.o
 .bss           0x02099f80        0x0 ./Debug/uiMenuUsbMsg.c.o
 .bss           0x02099f80        0x0 ./Debug/uiNoFileMsg.c.o
 .bss           0x02099f80        0x4 ./Debug/uiTips1Msg.c.o
 .bss           0x02099f84        0x4 ./Debug/uiTipsMsg.c.o
 .bss           0x02099f88        0x0 ./Debug/uiWin.c.o
 .bss           0x02099f88       0x24 ./Debug/uiSelfTestMsg.c.o
 .bss           0x02099fac        0x0 ./Debug/uiMenuVersionMsg.c.o
 .bss           0x02099fac       0x30 ./Debug/taskAudioRecordMsg.c.o
 .bss           0x02099fdc        0x8 ./Debug/taskAudioRecord.c.o
 .bss           0x02099fe4        0x0 ./Debug/taskAudioPlay.c.o
 .bss           0x02099fe4        0x0 ./Debug/taskAudioPlaydMsg.c.o
 .bss           0x02099fe4       0x50 ./Debug/uiSelfClockMsg.c.o
                0x02099fe4                g_clock_times
                0x02099fe8                g_clock_flag
 .bss           0x0209a034        0x0 ./Debug/uiMenuDelAllMsg2.c.o
 .bss           0x0209a034        0x0 ./Debug/uiMenuDelAllRes2.c.o
 .bss           0x0209a034        0x0 ./Debug/uiMenuDelCurMsg2.c.o
 .bss           0x0209a034        0x0 ./Debug/uiMenuDelCurRes2.c.o
 .bss           0x0209a034        0x0 ./Debug/xos_x_cpu.c.o
 .bss           0x0209a034       0x40 ./Debug/xos_xmbox.c.o
 .bss           0x0209a074        0x0 ./Debug/xos_xmsgq.c.o
 .bss           0x0209a074        0x8 ./Debug/xos_xos.c.o
 .bss           0x0209a07c       0x80 ./Debug/xos_xwork.c.o
 .bss           0x0209a0fc        0x0 ./Debug/multimedia_user_media.c.o
 .bss           0x0209a0fc        0x0 ./Debug/sUI_button.c.o
 .bss           0x0209a0fc        0x0 ./Debug/sUI_dialog.c.o
 .bss           0x0209a0fc        0x0 ./Debug/sUI_frameWin.c.o
 .bss           0x0209a0fc        0x0 ./Debug/sUI_imageIcon.c.o
 .bss           0x0209a0fc        0x4 ./Debug/sUI_itemManage.c.o
 .bss           0x0209a100        0x0 ./Debug/sUI_menuItem.c.o
 .bss           0x0209a100        0x0 ./Debug/sUI_menuItemEx.c.o
 .bss           0x0209a100        0x0 ./Debug/sUI_menuOption.c.o
 .bss           0x0209a100        0x0 ./Debug/sUI_progressBar.c.o
 .bss           0x0209a100        0x0 ./Debug/sUI_rect.c.o
 .bss           0x0209a100        0x0 ./Debug/sUI_stringIcon.c.o
 .bss           0x0209a100        0x0 ./Debug/sUI_tips.c.o
 .bss           0x0209a100        0x8 ./Debug/sUI_uiAlloc.c.o
 .bss           0x0209a108        0x0 ./Debug/sUI_widget.c.o
 .bss           0x0209a108       0x54 ./Debug/sUI_winManage.c.o
 .bss           0x0209a15c        0x0 ./Debug/sUI_memPool.c.o
 .bss           0x0209a15c        0x0 ./Debug/src_ax32xx_int.c.o
 .bss           0x0209a15c        0x0 ./Debug/src_ax32xx_sys.c.o
 .bss           0x0209a15c        0x1 ./Debug/src_ax32xx_dma.c.o
 .bss           0x0209a15d        0x0 ./Debug/src_ax32xx_wdt.c.o
 *fill*         0x0209a15d        0x3 
 .bss           0x0209a160       0x6c ./Debug/src_ax32xx_gpio.c.o
 .bss           0x0209a1cc        0x4 ./Debug/src_ax32xx_uart.c.o
 .bss           0x0209a1d0        0x0 ./Debug/src_ax32xx_timer.c.o
 .bss           0x0209a1d0       0x28 ./Debug/src_ax32xx_tminf.c.o
 .bss           0x0209a1f8        0x0 ./Debug/src_ax32xx_spi.c.o
 .bss           0x0209a1f8        0x0 ./Debug/src_ax32xx_rtc.c.o
 .bss           0x0209a1f8        0x0 ./Debug/src_ax32xx_md.c.o
 .bss           0x0209a1f8        0x0 ./Debug/src_ax32xx_iic.c.o
 .bss           0x0209a1f8        0x4 ./Debug/src_ax32xx_dac.c.o
 .bss           0x0209a1fc        0x0 ./Debug/src_ax32xx_adc.c.o
 .bss           0x0209a1fc        0x8 ./Debug/src_ax32xx_auadc.c.o
 .bss           0x0209a204        0x0 ./Debug/src_ax32xx_isp.c.o
 .bss           0x0209a204        0x1 ./Debug/src_jpeg_table.c.o
 .bss           0x0209a205        0x0 ./Debug/src_isp_tab.c.o
 *fill*         0x0209a205        0x3 
 .bss           0x0209a208       0x1c ./Debug/src_ax32xx_usb.c.o
 .bss           0x0209a224        0x0 ./Debug/src_ax32xx_misc.c.o
 .bss           0x0209a224        0x0 ./Debug/src_ax32xx_pip.c.o
 .bss           0x0209a224        0x0 ./Debug/src_ax32xx_btuart.c.o
 .bss           0x0209a224        0x0 ./Debug/src_ax32xx_crc.c.o
 .bss           0x0209a224        0x4 ./Debug/src_ax32xx_emi.c.o
 .bss           0x0209a228        0x4 ./Debug/src_ax32xx_rotate.c.o
 .bss           0x0209a22c        0x4 ./Debug/src_ax32xx_osdcmp.c.o
 .bss           0x0209a230        0x4 ./Debug/osd_ax32xx_osd.c.o
 .bss           0x0209a234       0x34 ./Debug/csi_ax32xx_csi.c.o
 .bss           0x0209a268        0x1 ./Debug/lcd_ax32xx_lcd.c.o
                0x0209a268                lcdc_mcu_toggle_state
 *fill*         0x0209a269        0x3 
 .bss           0x0209a26c       0x30 ./Debug/mjpeg_ax32xx_mjpeg.c.o
 .bss           0x0209a29c        0x0 ./Debug/resource_user_icon.c.o
 .bss           0x0209a29c        0x0 ./Debug/resource_user_str.c.o
 .bss           0x0209a29c        0x0 ./Debug/src_hal_adc.c.o
 .bss           0x0209a29c        0x0 ./Debug/src_hal_csi.c.o
 .bss           0x0209a29c        0x8 ./Debug/src_hal_dac.c.o
 .bss           0x0209a2a4        0x0 ./Debug/src_hal_eeprom.c.o
 .bss           0x0209a2a4        0x0 ./Debug/src_hal_gpio.c.o
 .bss           0x0209a2a4        0x2 ./Debug/src_hal_iic.c.o
 *fill*         0x0209a2a6       0x1a 
 .bss           0x0209a2c0      0x760 ./Debug/src_hal_lcd.c.o
 .bss           0x0209aa20        0x1 ./Debug/src_hal_md.c.o
 *fill*         0x0209aa21        0x3 
 .bss           0x0209aa24       0x30 ./Debug/src_hal_osd.c.o
 .bss           0x0209aa54       0x34 ./Debug/src_hal_rtc.c.o
 .bss           0x0209aa88       0x10 ./Debug/src_hal_sd.c.o
 .bss           0x0209aa98        0x0 ./Debug/src_hal_spi.c.o
 .bss           0x0209aa98        0x0 ./Debug/src_hal_timer.c.o
 .bss           0x0209aa98        0x8 ./Debug/src_hal_uart.c.o
 .bss           0x0209aaa0       0x10 ./Debug/src_hal_watermark.c.o
 .bss           0x0209aab0      0x214 ./Debug/src_hal_sys.c.o
 .bss           0x0209acc4      0x5d0 ./Debug/src_hal_auadc.c.o
                0x0209acc4                auadccnt
 .bss           0x0209b294     0x1cdc ./Debug/src_hal_mjpeg.c.o
                0x0209b294                ispmode_tmp
 .bss           0x0209cf70        0x0 ./Debug/src_hal_int.c.o
 .bss           0x0209cf70        0x0 ./Debug/src_hal_wdt.c.o
 .bss           0x0209cf70        0x0 ./Debug/src_hal_stream.c.o
 .bss           0x0209cf70      0x400 ./Debug/src_hal_emi.c.o
 .bss           0x0209d370     0x208c ./Debug/src_hal_mjpegB.c.o
 .bss           0x0209f3fc        0x8 ./Debug/src_hal_osdcmp.c.o
 .bss           0x0209f404       0x28 ./Debug/src_hal_rotate.c.o
 .bss           0x0209f42c        0x0 ./Debug/src_hal_lcdframe.c.o
 .bss           0x0209f42c       0xc8 ./Debug/isp_hal_isp.c.o
 .bss           0x0209f4f4        0x8 ./Debug/dusb_hal_usb_api.c.o
 .bss           0x0209f4fc       0x10 ./Debug/dusb_hal_usb_dev_enum.c.o
 .bss           0x0209f50c        0x0 ./Debug/dusb_hal_usb_msc.c.o
 .bss           0x0209f50c        0x0 ./Debug/dusb_hal_usb_uac.c.o
 .bss           0x0209f50c        0x1 ./Debug/dusb_hal_usb_uvc.c.o
 .bss           0x0209f50d        0x0 ./Debug/husb_hal_usb_host_api.c.o
 .bss           0x0209f50d        0x0 ./Debug/husb_hal_usb_host_tpbulk.c.o
 *fill*         0x0209f50d        0x3 
 .bss           0x0209f510    0x4b030 ./Debug/husb_hal_usb_host_uvc.c.o
 .bss           0x020ea540       0x24 ./Debug/husb_hal_usensor.c.o
 .bss           0x020ea564       0x30 ./Debug/audio_audio_playback.c.o
 .bss           0x020ea594       0x20 ./Debug/audio_audio_record.c.o
 .bss           0x020ea5b4       0x28 ./Debug/audio_ring_buffer.c.o
 .bss           0x020ea5dc       0xe8 ./Debug/video_video_playback.c.o
 .bss           0x020ea6c4        0x4 ./Debug/video_video_record.c.o
 .bss           0x020ea6c8        0x0 ./Debug/video_video_record_B.c.o
 .bss           0x020ea6c8        0x0 ./Debug/image_image_decode.c.o
 .bss           0x020ea6c8        0x0 ./Debug/image_image_encode.c.o
 .bss           0x020ea6c8        0x0 ./Debug/wav_alaw.c.o
 .bss           0x020ea6c8        0x0 ./Debug/wav_imaadpcm.c.o
 .bss           0x020ea6c8        0x0 ./Debug/wav_pcm.c.o
 .bss           0x020ea6c8        0x0 ./Debug/wav_ulaw.c.o
 .bss           0x020ea6c8       0xcc ./Debug/wav_wav.c.o
 .bss           0x020ea794        0x0 ./Debug/stream_stream.c.o
 .bss           0x020ea794        0x0 ./Debug/gsensor_G_gma301.c.o
 .bss           0x020ea794        0x8 ./Debug/gsensor_gsensor.c.o
 .bss           0x020ea79c        0x4 ./Debug/gsensor_G_sc7a30e.c.o
 .bss           0x020ea7a0        0x4 ./Debug/gsensor_g_da380.c.o
 *fill*         0x020ea7a4       0x1c 
 .bss           0x020ea7c0     0x1040 ./Debug/cmos_sensor_cmos_sensor.c.o
                0x020ea7c0                devSensorInit
                0x020ea7c4                devSensorOp
 .bss           0x020eb800        0x0 ./Debug/cmos_sensor_SENSOR_BF3a03.c.o
 .bss           0x020eb800        0x0 ./Debug/cmos_sensor_SENSOR_BF2013.c.o
 .bss           0x020eb800        0x0 ./Debug/cmos_sensor_SENSOR_BF3016.c.o
 .bss           0x020eb800        0x0 ./Debug/cmos_sensor_SENSOR_BF3703.c.o
 .bss           0x020eb800        0x0 ./Debug/cmos_sensor_SENSOR_GC0307.c.o
 .bss           0x020eb800        0x0 ./Debug/cmos_sensor_SENSOR_GC0308.c.o
 .bss           0x020eb800        0x0 ./Debug/cmos_sensor_SENSOR_GC0309.c.o
 .bss           0x020eb800        0x0 ./Debug/cmos_sensor_SENSOR_GC0328.c.o
 .bss           0x020eb800        0x0 ./Debug/cmos_sensor_SENSOR_GC1004.c.o
 .bss           0x020eb800        0x0 ./Debug/cmos_sensor_SENSOR_H42.c.o
 .bss           0x020eb800        0x0 ./Debug/cmos_sensor_SENSOR_H7640.c.o
 .bss           0x020eb800        0x0 ./Debug/cmos_sensor_SENSOR_HM1055.c.o
 .bss           0x020eb800        0x0 ./Debug/cmos_sensor_SENSOR_IT03A1.c.o
 .bss           0x020eb800        0x0 ./Debug/cmos_sensor_SENSOR_NT99141.c.o
 .bss           0x020eb800        0x0 ./Debug/cmos_sensor_SENSOR_NT99142.c.o
 .bss           0x020eb800        0x0 ./Debug/cmos_sensor_SENSOR_OV7670.c.o
 .bss           0x020eb800        0x0 ./Debug/cmos_sensor_SENSOR_OV7725.c.o
 .bss           0x020eb800        0x0 ./Debug/cmos_sensor_SENSOR_OV9710.c.o
 .bss           0x020eb800        0x0 ./Debug/cmos_sensor_SENSOR_OV9732.c.o
 .bss           0x020eb800        0x0 ./Debug/cmos_sensor_SENSOR_SC1045.c.o
 .bss           0x020eb800        0x0 ./Debug/cmos_sensor_SENSOR_SIV100B.c.o
 .bss           0x020eb800        0x0 ./Debug/cmos_sensor_SENSOR_SIV120B.c.o
 .bss           0x020eb800        0x0 ./Debug/cmos_sensor_SENSOR_SIV121DS.c.o
 .bss           0x020eb800        0x0 ./Debug/cmos_sensor_SENSOR_SP1409.c.o
 .bss           0x020eb800        0x0 ./Debug/cmos_sensor_SENSOR_H62.c.o
 .bss           0x020eb800        0x0 ./Debug/cmos_sensor_SENSOR_GC1034.c.o
 .bss           0x020eb800        0x0 ./Debug/cmos_sensor_SENSOR_OV7736.c.o
 .bss           0x020eb800        0x0 ./Debug/cmos_sensor_SENSOR_SP140A.c.o
 .bss           0x020eb800        0x0 ./Debug/cmos_sensor_SENSOR_GC1054.c.o
 .bss           0x020eb800        0x0 ./Debug/cmos_sensor_SENSOR_GC1064.c.o
 .bss           0x020eb800        0x0 ./Debug/cmos_sensor_SENSOR_H65.c.o
 .bss           0x020eb800        0x0 ./Debug/cmos_sensor_SENSOR_SC1243.c.o
 .bss           0x020eb800        0x0 ./Debug/cmos_sensor_SENSOR_H63.c.o
 .bss           0x020eb800        0x0 ./Debug/cmos_sensor_SENSOR_H63P.c.o
 .bss           0x020eb800        0x0 ./Debug/tft_lcd_lcd_mcu_st7789.c.o
 .bss           0x020eb800        0x0 ./Debug/tft_lcd_lcd_rgb_jl_lcd.c.o
 .bss           0x020eb800        0x0 ./Debug/tft_lcd_lcd_rgb_st7282.c.o
 .bss           0x020eb800        0x8 ./Debug/tft_lcd_tft_lcd.c.o
 .bss           0x020eb808        0x0 ./Debug/tft_lcd_lcd_mcu_5420.c.o
 .bss           0x020eb808        0x0 ./Debug/tft_lcd_lcd_mcu_r61509v.c.o
 .bss           0x020eb808        0x0 ./Debug/tft_lcd_lcd_rgb_ili8961.c.o
 .bss           0x020eb808        0x0 ./Debug/tft_lcd_lcd_rgb_ili9342c.c.o
 .bss           0x020eb808        0x0 ./Debug/tft_lcd_lcd_mcu_ili9328.c.o
 .bss           0x020eb808        0x0 ./Debug/tft_lcd_lcd_mcu_hx8352b.c.o
 .bss           0x020eb808        0x0 ./Debug/tft_lcd_lcd_mcu_st7789v.c.o
 .bss           0x020eb808        0x0 ./Debug/tft_lcd_lcd_mcu_hx8352c.c.o
 .bss           0x020eb808        0x0 ./Debug/tft_lcd_lcd_mcu_hx8357b.c.o
 .bss           0x020eb808        0x0 ./Debug/tft_lcd_lcd_rgb_ili9806e.c.o
 .bss           0x020eb808        0x0 ./Debug/tft_lcd_lcd_rgb_ota5182.c.o
 .bss           0x020eb808        0x0 ./Debug/tft_lcd_lcd_rgb_st7701.c.o
 .bss           0x020eb808        0x0 ./Debug/tft_lcd_lcd_mcu_lgdp4532.c.o
 .bss           0x020eb808        0x0 ./Debug/tft_lcd_lcd_mcu_9225G.c.o
 .bss           0x020eb808        0x0 ./Debug/tft_lcd_lcd_mcu_st7789v2.c.o
 .bss           0x020eb808        0x0 ./Debug/tft_lcd_lcd_mcu_gc9307.c.o
 .bss           0x020eb808        0x0 ./Debug/usensor_237a_1.c.o
 .bss           0x020eb808        0x0 ./Debug/usensor_usensor.c.o
 .bss           0x020eb808        0x0 ./Debug/usensor_237a_2.c.o
 .bss           0x020eb808       0x18 ./Debug/nvfs_nvfs.c.o
 .bss           0x020eb820       0x10 ./Debug/Maxlib_max_user.c.o
                0x020eb820                LCD_HEIGHT
                0x020eb822                LCD_WIDTH
 .bss           0x020eb830       0x68 ./Debug/Maxlib_uiDraw.c.o
 .bss           0x020eb898       0x10 ./Debug/std_misc.c.o
 .bss           0x020eb8a8        0x0 ./Debug/std_std_math.c.o
 .bss           0x020eb8a8        0x0 ./Debug/std_str.c.o
 .bss           0x020eb8a8        0x0 ./Debug/res_ascii.c.o
 .bss           0x020eb8a8        0x0 ./Debug/res_ascii_default.c.o
 .bss           0x020eb8a8        0x0 ./Debug/res_ascii_default_draw.c.o
 .bss           0x020eb8a8        0x0 ./Debug/res_ascii_num2.c.o
 .bss           0x020eb8a8        0x0 ./Debug/res_ascii_num2_draw.c.o
 .bss           0x020eb8a8        0x0 ./Debug/res_ascii_num3.c.o
 .bss           0x020eb8a8        0x0 ./Debug/res_ascii_num3_draw.c.o
 .bss           0x020eb8a8        0x0 ./Debug/res_ascii_num4.c.o
 .bss           0x020eb8a8        0x0 ./Debug/res_ascii_num4_draw.c.o
 .bss           0x020eb8a8        0x0 ./Debug/res_R.c.o
 .bss           0x020eb8a8       0x10 ./Debug/res_R_icon.c.o
 .bss           0x020eb8b8        0xc ./Debug/res_R_string.c.o
 .bss           0x020eb8c4        0x0 ./Debug/res_ascii_num5.c.o
 .bss           0x020eb8c4        0x0 ./Debug/res_ascii_num5_draw.c.o
 .bss           0x020eb8c4       0x18 ../bwlib\libusbh.a(hal_usb_host_enum.o)
 .bss           0x020eb8dc        0x0 ../bwlib\libsd.a(ax32xx_sd.o)
 .bss           0x020eb8dc       0x60 ../bwlib\libavi.a(aviEncoder.o)
 .bss           0x020eb93c        0x0 ../bwlib\libavi.a(encoder_std.o)
 .bss           0x020eb93c        0x0 ../bwlib\libavi.a(encoder_odml.o)
 .bss           0x020eb93c      0x1f4 ../bwlib\libavi.a(aviDecoder.o)
 .bss           0x020ebb30        0x4 ../bwlib\libavi.a(decoder_std.o)
 .bss           0x020ebb34        0x4 ../bwlib\libavi.a(decoder_odml.o)
 .bss           0x020ebb38      0x490 ../bwlib\libfs.a(fs.o)
 .bss           0x020ebfc8        0x0 ../bwlib\libfs.a(diskio.o)
 .bss           0x020ebfc8      0x468 ../bwlib\libfs.a(ff.o)
 .bss           0x020ec430        0x0 ../bwlib\libfs.a(ffunicode.o)
 .bss           0x020ec430        0x0 C:/MinGW-4.7.1/or1k-elf/lib/no-delay\libc.a(lib_a-memcpy.o)
 .bss           0x020ec430        0x0 C:/MinGW-4.7.1/or1k-elf/lib/no-delay\libc.a(lib_a-memset.o)
 .bss           0x020ec430        0x0 C:/MinGW-4.7.1/or1k-elf/lib/no-delay\libc.a(lib_a-strcat.o)
 .bss           0x020ec430        0x0 C:/MinGW-4.7.1/or1k-elf/lib/no-delay\libc.a(lib_a-strcmp.o)
 .bss           0x020ec430        0x0 C:/MinGW-4.7.1/or1k-elf/lib/no-delay\libc.a(lib_a-strcpy.o)
 .bss           0x020ec430        0x0 C:/MinGW-4.7.1/or1k-elf/lib/no-delay\libc.a(lib_a-strlen.o)
 .bss           0x020ec430        0x0 C:/MinGW-4.7.1/or1k-elf/lib/no-delay\libc.a(lib_a-strncmp.o)
 .bss           0x020ec430        0x0 C:/MinGW-4.7.1/or1k-elf/lib/no-delay\libc.a(lib_a-strncpy.o)
 .bss           0x020ec430        0x0 C:/MinGW-4.7.1/lib/gcc/or1k-elf/4.9.1/no-delay\libgcc.a(_udivdi3.o)
 .bss           0x020ec430        0x0 C:/MinGW-4.7.1/lib/gcc/or1k-elf/4.9.1/no-delay\libgcc.a(__udivsi3.o)
 .bss           0x020ec430        0x0 C:/MinGW-4.7.1/lib/gcc/or1k-elf/4.9.1/no-delay\libgcc.a(__umodsi3.o)
 .bss           0x020ec430        0x0 C:/MinGW-4.7.1/lib/gcc/or1k-elf/4.9.1/no-delay\libgcc.a(_clz.o)
 *(COMMON)
 COMMON         0x020ec430     0x8264 ./Debug/main.c.o
                0x020ec430                fp11_epout_isr_hal
                0x020ec434                usb_varm
                0x020ec450                WAV_TYPE_E
                0x020ec454                SysCtrl
                0x020ec4b0                fp_epout_isr_hal
                0x020ec4b4                mediaVideoCtrlB
                0x020ec538                usb_type
                0x020ec53c                p_enp
                0x020ec540                u_dev
                0x020ec548                udev
                0x020ec560                p_dev
                0x020ec564                usb_host_type
                0x020ec568                audiobuff
                0x020f4568                tpbulk_block
                0x020f45a8                fp_uac_unit_ctl_hal
                0x020f45ac                usb_dev_addr
                0x020f45b0                fp_UacHandleToStreaming
                0x020f45b4                setup_pkt
                0x020f45bc                pkt_per_sec
                0x020f45c0                commit
                0x020f45dc                EP0WaitForSetReqData
                0x020f45e0                p_ifc
                0x020f45e4                usb_var
                0x020f45e8                p_cfg
                0x020f45ec                isostack
                0x020f45fc                mediaVideoCtrl
                0x020f4680                usbstack
                0x020f4690                CHANNEL_EXCHANGE_E
 COMMON         0x020f4694        0x8 ./Debug/upgrade.c.o
                0x020f4694                strHandle
                0x020f4698                progressBar
 COMMON         0x020f469c      0x824 ./Debug/logo.c.o
                0x020f469c                uvcisp
                0x020f4ea0                version_str
 COMMON         0x020f4ec0       0x3c ./Debug/taskSysScanDevice.c.o
                0x020f4ec0                info_buf
                0x020f4ef7                filetime
                0x020f4ef8                resolution
                0x020f4ef9                recycle
                0x020f4efa                time
                0x020f4efb                motion
 COMMON         0x020f4efc       0x38 ./Debug/taskVideoRecord.c.o
                0x020f4efc                tempFileName2
                0x020f4f18                tempFileName1
 COMMON         0x020f4f34        0x1 ./Debug/xos_xos.c.o
                0x020f4f34                XOSNesting
 *fill*         0x020f4f35        0x3 
 COMMON         0x020f4f38       0x74 ./Debug/multimedia_user_media.c.o
                0x020f4f38                jpegCache
                0x020f4f3c                audsIStack
                0x020f4f48                jpegBStack
                0x020f4f50                audioCache
                0x020f4f54                aviIdx1CacheB
                0x020f4f58                audsTStack
                0x020f4f64                vidsBStack
                0x020f4f78                jpegIStack
                0x020f4f80                audsBStack
                0x020f4f8c                thumbnailUVBuffer
                0x020f4f90                aviIdx1Cache
                0x020f4f94                thumbnailYBuffer
                0x020f4f98                vidsIStack
 COMMON         0x020f4fac        0x8 ./Debug/src_ax32xx_int.c.o
                0x020f4fac                fp_usb_isr
                0x020f4fb0                fp_usb11_isr
 COMMON         0x020f4fb4        0x1 ./Debug/src_ax32xx_sys.c.o
                0x020f4fb4                smph_dmacopy
 *fill*         0x020f4fb5        0x3 
 COMMON         0x020f4fb8        0x4 ./Debug/src_ax32xx_wdt.c.o
                0x020f4fb8                wdt_en
 COMMON         0x020f4fbc       0x10 ./Debug/src_ax32xx_timer.c.o
                0x020f4fbc                timerISR
 COMMON         0x020f4fcc        0x8 ./Debug/src_ax32xx_rtc.c.o
                0x020f4fcc                rtcSecondISR
                0x020f4fd0                rtcAlamISR
 *fill*         0x020f4fd4        0xc 
 COMMON         0x020f4fe0     0x1378 ./Debug/src_ax32xx_isp.c.o
                0x020f4fe0                ispstat
                0x020f58a0                isp
                0x020f58e0                using_contrast
                0x020f59e0                lsc_tab
                0x020f5e58                RGB_GMMA
                0x020f6158                Y_GMA
 COMMON         0x020f6358       0x20 ./Debug/src_ax32xx_usb.c.o
                0x020f6358                fp11_host_connect_hal
                0x020f635c                sofcnt
                0x020f6360                fp_host_remove_hal
                0x020f6364                fp11_host_remove_hal
                0x020f6368                mscbusy
                0x020f636c                fp_host11_remove_hal
                0x020f6370                fp_host11_connect_hal
                0x020f6374                fp_host_connect_hal
 COMMON         0x020f6378        0x4 ./Debug/csi_ax32xx_csi.c.o
                0x020f6378                csifcnt
 COMMON         0x020f637c       0x14 ./Debug/lcd_ax32xx_lcd.c.o
                0x020f637c                ax32xx_lcdISR
 COMMON         0x020f6390       0x68 ./Debug/mjpeg_ax32xx_mjpeg.c.o
                0x020f6390                fp_jpegdc_ldone_hal
                0x020f6394                block_scaler_tab
                0x020f63f4                javgsize
 COMMON         0x020f63f8       0x14 ./Debug/src_hal_csi.c.o
                0x020f63f8                snser
 COMMON         0x020f640c        0x4 ./Debug/src_hal_sd.c.o
                0x020f640c                speed
 COMMON         0x020f6410     0x2004 ./Debug/src_hal_auadc.c.o
                0x020f6410                pcm_buf
                0x020f6414                auadcbuff
 COMMON         0x020f8414       0x10 ./Debug/src_hal_mjpegB.c.o
                0x020f8414                jbecsta
                0x020f8418                fBcnt
                0x020f841c                usensor_jid
                0x020f8420                jBavgsize
 COMMON         0x020f8424      0x2f8 ./Debug/src_hal_lcdframe.c.o
                0x020f8424                dfm
 COMMON         0x020f871c       0x10 ./Debug/isp_hal_isp.c.o
                0x020f871c                fp_stat_isr
                0x020f8720                fp_ae_isr
                0x020f8724                fp_sensor_exposure
                0x020f8728                fp_awb_isr
 COMMON         0x020f872c       0x3d ./Debug/dusb_hal_usb_dev_enum.c.o
                0x020f872c                fp_uvc_off_hal
                0x020f8730                fp_uvc_on_hal
                0x020f8734                uac_onflg
                0x020f8736                usb_rqu
                0x020f8740                fp_uac_on_hal
                0x020f8744                usb_dev
                0x020f8760                pSetReqCallback
                0x020f8764                fp_uac_off_hal
                0x020f8768                uvc_onflg
 *fill*         0x020f8769        0x3 
 COMMON         0x020f876c       0x80 ./Debug/dusb_hal_usb_msc.c.o
                0x020f876c                scsi
                0x020f8784                fp_disk_rd
                0x020f8788                fp_disk_cap
                0x020f878c                fp_disk_online
                0x020f8790                fp_usb_bulk_tx
                0x020f8794                fp_disk_stop
                0x020f8798                fp_usb_bulk_rx
                0x020f879c                fp_disk_busy
                0x020f87a0                fp_disk_free
                0x020f87a4                fp_disk_wr
                0x020f87a8                MscCmd
 COMMON         0x020f87ec       0x10 ./Debug/dusb_hal_usb_uac.c.o
                0x020f87ec                UacSampFreq
                0x020f87ef                uaconflg
                0x020f87f0                UacMuteControl
                0x020f87f4                UacVolCtrlSettings
 COMMON         0x020f87fc       0x18 ./Debug/dusb_hal_usb_uvc.c.o
                0x020f87fc                ptgl
                0x020f8800                fp_usb_ep0_tx
                0x020f8804                fp_uvc_probe_ctl_hal
                0x020f8808                fp_uvc_unit_ctl_ex_hal
                0x020f880c                fp_usb_iso_tx
                0x020f8810                fp_uvc_unit_ctl_hal
 COMMON         0x020f8814       0x54 ./Debug/husb_hal_usb_host_tpbulk.c.o
                0x020f8814                mscstack
                0x020f8820                diskhal
 COMMON         0x020f8868       0x20 ./Debug/husb_hal_usb_host_uvc.c.o
                0x020f8868                uvchal
                0x020f8874                uvc_fstack
 *fill*         0x020f8888       0x18 
 COMMON         0x020f88a0    0x70815 ./Debug/husb_hal_usensor.c.o
                0x020f88a0                jBLbuf
                0x021690a0                jbdcsta
                0x021690a4                fp_mjpBcodec_linking
                0x021690a8                backrecadpt
                0x021690b4                debg_jdec
 *fill*         0x021690b5        0xb 
 COMMON         0x021690c0      0xcb0 ./Debug/cmos_sensor_cmos_sensor.c.o
                0x021690c0                devSensor_Cmd
                0x02169d20                devSensor_Ident
 COMMON         0x02169d70      0xbde ../bwlib\libusbh.a(hal_usb_host_enum.o)
                0x02169d70                dev
                0x02169d82                usbsta
                0x02169d88                busy
                0x02169d8c                pfun
                0x02169d90                edpt
                0x02169e10                phusbfun
                0x0216a010                iicpr
                0x0216a014                uisp
                0x0216a030                exmand
                0x0216a04c                uvc
                0x0216a05c                intfs
                0x0216a0ec                cfg
                0x0216a0f8                desc
                0x0216a8f8                pcommit
                0x0216a938                backstabuf
                0x0216a93c                sensor_id
                0x0216a940                msc
 *fill*         0x0216a94e        0x2 
 COMMON         0x0216a950       0x18 ../bwlib\libfs.a(diskio.o)
                0x0216a950                fp_tmnow
                0x0216a954                fp_storage_wr
                0x0216a958                fp_f_write
                0x0216a95c                fp_storage_sta
                0x0216a960                fp_storage_rd
                0x0216a964                fp_storage_init
 *(.buff.clmt)
 *(.big_buffer*)
 *fill*         0x0216a968       0x18 
 .big_buffer    0x0216a980     0xa000 ./Debug/sUI_winManage.c.o
 .big_buffer    0x02174980      0x800 ./Debug/src_hal_sys.c.o
                0x02174980                halSysMemLineCache
 *(._urx_buf_)
 ._urx_buf_     0x02175180      0x238 ../bwlib\libfs.a(fs.o)
                0x02175180                work_fatfs
                0x021753c0                _sdram_remian_addr = (ALIGN (0x40) + 0x0)

.before_load    0x00002000        0x0 load address 0x00093800
                0x00002000                _before_load_vma = .
 *(.before_load.entry)
 *(.before_load)

.lcd_resource   0x00000000     0x2a3c load address 0x00093800
 *(.lcd_res.header)
 .lcd_res.header
                0x00000000       0x38 ./Debug/tft_lcd_tft_lcd.c.o
                0x00000000                lcdheader
                0x00000038                _res_lcd_struct_start = .
 *(.lcd_res.struct)
 .lcd_res.struct
                0x00000038      0x24c ./Debug/tft_lcd_lcd_mcu_gc9307.c.o
                0x00000038                gc9307
                0x00000284                _res_lcd_struct_end = .
 *(.lcd_res.init_tab)
 .lcd_res.init_tab
                0x00000284      0x2b8 ./Debug/tft_lcd_lcd_mcu_gc9307.c.o
 *(.lcd_res.gamma_tab)
 .lcd_res.gamma_tab
                0x0000053c     0x1800 ./Debug/tft_lcd_tft_lcd.c.o
                0x0000053c                lcd_gama
 *(.lcd_res.contra_tab)
 .lcd_res.contra_tab
                0x00001d3c      0xd00 ./Debug/tft_lcd_tft_lcd.c.o
                0x00001d3c                lcd_contra_tab

.sensor_resource
                0x00000000     0xd40c load address 0x0009623c
 *(.sensor_res.header)
 .sensor_res.header
                0x00000000       0x40 ./Debug/cmos_sensor_cmos_sensor.c.o
                0x00000000                SensorHeader
                0x00000040                _res_sensor_header_item_start = .
 *(.sensor_res.header.items)
 .sensor_res.header.items
                0x00000040       0x50 ./Debug/cmos_sensor_SENSOR_H62.c.o
                0x00000040                h62_init
 .sensor_res.header.items
                0x00000090       0x50 ./Debug/cmos_sensor_SENSOR_H65.c.o
                0x00000090                h65_init
 .sensor_res.header.items
                0x000000e0       0x50 ./Debug/cmos_sensor_SENSOR_H63.c.o
                0x000000e0                h63_init
 .sensor_res.header.items
                0x00000130       0x50 ./Debug/cmos_sensor_SENSOR_H63P.c.o
                0x00000130                h63p_init
                0x00000180                _res_sensor_header_item_end = .
 *(.sensor_res.isp_tab)
 .sensor_res.isp_tab
                0x00000180     0x2800 ./Debug/src_isp_tab.c.o
                0x00000180                contra_tab
                0x00000880                gama
                0x00001a80                color_compress
 .sensor_res.isp_tab
                0x00002980     0x1c78 ./Debug/cmos_sensor_SENSOR_H62.c.o
 .sensor_res.isp_tab
                0x000045f8     0x1c78 ./Debug/cmos_sensor_SENSOR_H65.c.o
 .sensor_res.isp_tab
                0x00006270     0x1c78 ./Debug/cmos_sensor_SENSOR_H63.c.o
 .sensor_res.isp_tab
                0x00007ee8     0x20f0 ./Debug/cmos_sensor_SENSOR_H63P.c.o
 *(.sensor_res.struct)
 .sensor_res.struct
                0x00009fd8      0xc5c ./Debug/cmos_sensor_SENSOR_H62.c.o
 .sensor_res.struct
                0x0000ac34      0xc5c ./Debug/cmos_sensor_SENSOR_H65.c.o
 .sensor_res.struct
                0x0000b890      0xc5c ./Debug/cmos_sensor_SENSOR_H63.c.o
 .sensor_res.struct
                0x0000c4ec      0xc5c ./Debug/cmos_sensor_SENSOR_H63P.c.o
 *(.sensor_res.init_tab)
 .sensor_res.init_tab
                0x0000d148       0x94 ./Debug/cmos_sensor_SENSOR_H62.c.o
 .sensor_res.init_tab
                0x0000d1dc       0xa8 ./Debug/cmos_sensor_SENSOR_H65.c.o
 .sensor_res.init_tab
                0x0000d284       0xbc ./Debug/cmos_sensor_SENSOR_H63.c.o
 .sensor_res.init_tab
                0x0000d340       0xcc ./Debug/cmos_sensor_SENSOR_H63P.c.o

.eh_frame       0x0000d40c     0xfbac load address 0x000a3648
 *(.eh_frame)
 .eh_frame      0x0000d40c       0xe4 ./Debug/main.c.o
 .eh_frame      0x0000d4f0      0x430 ./Debug/resource_manager.c.o
                                0x444 (size before relaxing)
 .eh_frame      0x0000d920       0x68 ./Debug/upgrade.c.o
                                 0x7c (size before relaxing)
 .eh_frame      0x0000d988       0x88 ./Debug/board.c.o
                                 0x9c (size before relaxing)
 .eh_frame      0x0000da10      0x280 ./Debug/board_bwv1.c.o
                                0x294 (size before relaxing)
 .eh_frame      0x0000dc90       0xb0 ./Debug/config.c.o
                                 0xc4 (size before relaxing)
 .eh_frame      0x0000dd40      0x258 ./Debug/display.c.o
                                0x26c (size before relaxing)
 .eh_frame      0x0000df98      0x228 ./Debug/filelist.c.o
                                0x23c (size before relaxing)
 .eh_frame      0x0000e1c0      0x11c ./Debug/font.c.o
                                0x130 (size before relaxing)
 .eh_frame      0x0000e2dc       0xa4 ./Debug/icon.c.o
                                 0xb8 (size before relaxing)
 .eh_frame      0x0000e380       0x1c ./Debug/configGetValue.c.o
                                 0x30 (size before relaxing)
 .eh_frame      0x0000e39c       0x54 ./Debug/configSystem.c.o
                                 0x68 (size before relaxing)
 .eh_frame      0x0000e3f0       0xbc ./Debug/logo.c.o
                                 0xd0 (size before relaxing)
 .eh_frame      0x0000e4ac       0x70 ./Debug/menuMovieRec.c.o
                                 0x84 (size before relaxing)
 .eh_frame      0x0000e51c       0xc4 ./Debug/menuPlayBack.c.o
                                 0xd8 (size before relaxing)
 .eh_frame      0x0000e5e0       0x98 ./Debug/msgDeal.c.o
                                 0xac (size before relaxing)
 .eh_frame      0x0000e678       0x98 ./Debug/msgSysRecommend.c.o
                                 0xac (size before relaxing)
 .eh_frame      0x0000e710      0x1f8 ./Debug/msgSysUnshielded.c.o
                                0x20c (size before relaxing)
 .eh_frame      0x0000e908       0xe4 ./Debug/taskManage.c.o
                                 0xf8 (size before relaxing)
 .eh_frame      0x0000e9ec       0x94 ./Debug/taskPhotoEncode.c.o
                                 0xa8 (size before relaxing)
 .eh_frame      0x0000ea80      0x218 ./Debug/taskPhotoEncodeMsg.c.o
                                0x22c (size before relaxing)
 .eh_frame      0x0000ec98       0x90 ./Debug/taskPlayBack.c.o
                                 0xa4 (size before relaxing)
 .eh_frame      0x0000ed28      0x350 ./Debug/taskPlayBackMsg.c.o
                                0x364 (size before relaxing)
 .eh_frame      0x0000f078       0x40 ./Debug/taskPowerOff.c.o
                                 0x54 (size before relaxing)
 .eh_frame      0x0000f0b8      0x390 ./Debug/taskSysScanDevice.c.o
                                0x3a4 (size before relaxing)
 .eh_frame      0x0000f448       0xf8 ./Debug/taskUsbDevice.c.o
                                0x10c (size before relaxing)
 .eh_frame      0x0000f540      0x12c ./Debug/taskVideoRecord.c.o
                                0x140 (size before relaxing)
 .eh_frame      0x0000f66c      0x3c8 ./Debug/taskVideoRecordMsg.c.o
                                0x3dc (size before relaxing)
 .eh_frame      0x0000fa34       0x1c ./Debug/toolFunc.c.o
                                 0x30 (size before relaxing)
 .eh_frame      0x0000fa50      0x128 ./Debug/uiAsternMsg.c.o
                                0x13c (size before relaxing)
 .eh_frame      0x0000fb78      0x180 ./Debug/uiMenuDateTimeMsg.c.o
                                0x194 (size before relaxing)
 .eh_frame      0x0000fcf8      0x10c ./Debug/uiMenuDefaultMsg.c.o
                                0x120 (size before relaxing)
 .eh_frame      0x0000fe04      0x118 ./Debug/uiMenuDelAllMsg.c.o
                                0x12c (size before relaxing)
 .eh_frame      0x0000ff1c      0x114 ./Debug/uiMenuDelCurMsg.c.o
                                0x128 (size before relaxing)
 .eh_frame      0x00010030      0x114 ./Debug/uiMenuFormatMsg.c.o
                                0x128 (size before relaxing)
 .eh_frame      0x00010144      0x22c ./Debug/uiMenuItemMsg.c.o
                                0x240 (size before relaxing)
 .eh_frame      0x00010370      0x130 ./Debug/uiMenuLockCurMsg.c.o
                                0x144 (size before relaxing)
 .eh_frame      0x000104a0      0x12c ./Debug/uiMenuOptionMsg.c.o
                                0x140 (size before relaxing)
 .eh_frame      0x000105cc      0x11c ./Debug/uiMenuUnlockAllMsg.c.o
                                0x130 (size before relaxing)
 .eh_frame      0x000106e8      0x114 ./Debug/uiMenuUnlockCurMsg.c.o
                                0x128 (size before relaxing)
 .eh_frame      0x000107fc      0x108 ./Debug/uiMenuUsbMsg.c.o
                                0x11c (size before relaxing)
 .eh_frame      0x00010904      0x144 ./Debug/uiNoFileMsg.c.o
                                0x158 (size before relaxing)
 .eh_frame      0x00010a48      0x158 ./Debug/uiTips1Msg.c.o
                                0x16c (size before relaxing)
 .eh_frame      0x00010ba0      0x13c ./Debug/uiTipsMsg.c.o
                                0x150 (size before relaxing)
 .eh_frame      0x00010cdc       0x94 ./Debug/uiWin.c.o
                                 0xa8 (size before relaxing)
 .eh_frame      0x00010d70      0x150 ./Debug/uiSelfTestMsg.c.o
                                0x164 (size before relaxing)
 .eh_frame      0x00010ec0       0xbc ./Debug/uiMenuVersionMsg.c.o
                                 0xd0 (size before relaxing)
 .eh_frame      0x00010f7c      0x258 ./Debug/taskAudioRecordMsg.c.o
                                0x26c (size before relaxing)
 .eh_frame      0x000111d4       0x78 ./Debug/taskAudioRecord.c.o
                                 0x8c (size before relaxing)
 .eh_frame      0x0001124c       0x70 ./Debug/taskAudioPlay.c.o
                                 0x84 (size before relaxing)
 .eh_frame      0x000112bc      0x1b0 ./Debug/taskAudioPlaydMsg.c.o
                                0x1c4 (size before relaxing)
 .eh_frame      0x0001146c      0x208 ./Debug/uiSelfClockMsg.c.o
                                0x21c (size before relaxing)
 .eh_frame      0x00011674      0x114 ./Debug/uiMenuDelAllMsg2.c.o
                                0x128 (size before relaxing)
 .eh_frame      0x00011788      0x114 ./Debug/uiMenuDelCurMsg2.c.o
                                0x128 (size before relaxing)
 .eh_frame      0x0001189c       0x8c ./Debug/xos_xmbox.c.o
                                 0xa0 (size before relaxing)
 .eh_frame      0x00011928       0xd4 ./Debug/xos_xmsgq.c.o
                                 0xe8 (size before relaxing)
 .eh_frame      0x000119fc       0x80 ./Debug/xos_xos.c.o
                                 0x94 (size before relaxing)
 .eh_frame      0x00011a7c       0x70 ./Debug/xos_xwork.c.o
                                 0x84 (size before relaxing)
 .eh_frame      0x00011aec       0x58 ./Debug/sUI_button.c.o
                                 0x6c (size before relaxing)
 .eh_frame      0x00011b44       0x40 ./Debug/sUI_dialog.c.o
                                 0x54 (size before relaxing)
 .eh_frame      0x00011b84       0x58 ./Debug/sUI_frameWin.c.o
                                 0x6c (size before relaxing)
 .eh_frame      0x00011bdc       0x58 ./Debug/sUI_imageIcon.c.o
                                 0x6c (size before relaxing)
 .eh_frame      0x00011c34      0x348 ./Debug/sUI_itemManage.c.o
                                0x35c (size before relaxing)
 .eh_frame      0x00011f7c       0x64 ./Debug/sUI_menuItem.c.o
                                 0x78 (size before relaxing)
 .eh_frame      0x00011fe0       0x68 ./Debug/sUI_menuItemEx.c.o
                                 0x7c (size before relaxing)
 .eh_frame      0x00012048       0x64 ./Debug/sUI_menuOption.c.o
                                 0x78 (size before relaxing)
 .eh_frame      0x000120ac       0x58 ./Debug/sUI_progressBar.c.o
                                 0x6c (size before relaxing)
 .eh_frame      0x00012104       0x58 ./Debug/sUI_rect.c.o
                                 0x6c (size before relaxing)
 .eh_frame      0x0001215c       0x58 ./Debug/sUI_stringIcon.c.o
                                 0x6c (size before relaxing)
 .eh_frame      0x000121b4       0x58 ./Debug/sUI_tips.c.o
                                 0x6c (size before relaxing)
 .eh_frame      0x0001220c       0x84 ./Debug/sUI_uiAlloc.c.o
                                 0x98 (size before relaxing)
 .eh_frame      0x00012290       0x80 ./Debug/sUI_widget.c.o
                                 0x94 (size before relaxing)
 .eh_frame      0x00012310      0x4ec ./Debug/sUI_winManage.c.o
                                0x500 (size before relaxing)
 .eh_frame      0x000127fc       0x64 ./Debug/sUI_memPool.c.o
                                 0x78 (size before relaxing)
 .eh_frame      0x00012860      0x31c ./Debug/src_ax32xx_int.c.o
                                0x330 (size before relaxing)
 .eh_frame      0x00012b7c      0x1f4 ./Debug/src_ax32xx_sys.c.o
                                0x208 (size before relaxing)
 .eh_frame      0x00012d70       0x5c ./Debug/src_ax32xx_dma.c.o
                                 0x70 (size before relaxing)
 .eh_frame      0x00012dcc       0x78 ./Debug/src_ax32xx_wdt.c.o
                                 0x8c (size before relaxing)
 .eh_frame      0x00012e44      0x210 ./Debug/src_ax32xx_gpio.c.o
                                0x224 (size before relaxing)
 .eh_frame      0x00013054       0x6c ./Debug/src_ax32xx_uart.c.o
                                 0x80 (size before relaxing)
 .eh_frame      0x000130c0      0x140 ./Debug/src_ax32xx_timer.c.o
                                0x154 (size before relaxing)
 .eh_frame      0x00013200      0x110 ./Debug/src_ax32xx_tminf.c.o
                                0x124 (size before relaxing)
 .eh_frame      0x00013310      0x174 ./Debug/src_ax32xx_spi.c.o
                                0x188 (size before relaxing)
 .eh_frame      0x00013484      0x2ac ./Debug/src_ax32xx_rtc.c.o
                                0x2c0 (size before relaxing)
 .eh_frame      0x00013730       0x80 ./Debug/src_ax32xx_md.c.o
                                 0x94 (size before relaxing)
 .eh_frame      0x000137b0      0x2c8 ./Debug/src_ax32xx_iic.c.o
                                0x2dc (size before relaxing)
 .eh_frame      0x00013a78      0x198 ./Debug/src_ax32xx_dac.c.o
                                0x1ac (size before relaxing)
 .eh_frame      0x00013c10       0x64 ./Debug/src_ax32xx_adc.c.o
                                 0x78 (size before relaxing)
 .eh_frame      0x00013c74      0x110 ./Debug/src_ax32xx_auadc.c.o
                                0x124 (size before relaxing)
 .eh_frame      0x00013d84      0x228 ./Debug/src_ax32xx_isp.c.o
                                0x23c (size before relaxing)
 .eh_frame      0x00013fac       0x38 ./Debug/src_jpeg_table.c.o
                                 0x4c (size before relaxing)
 .eh_frame      0x00013fe4      0x310 ./Debug/src_ax32xx_usb.c.o
                                0x324 (size before relaxing)
 .eh_frame      0x000142f4       0xc0 ./Debug/src_ax32xx_misc.c.o
                                 0xd4 (size before relaxing)
 .eh_frame      0x000143b4       0x80 ./Debug/src_ax32xx_pip.c.o
                                 0x94 (size before relaxing)
 .eh_frame      0x00014434       0xa4 ./Debug/src_ax32xx_emi.c.o
                                 0xb8 (size before relaxing)
 .eh_frame      0x000144d8       0xc0 ./Debug/src_ax32xx_rotate.c.o
                                 0xd4 (size before relaxing)
 .eh_frame      0x00014598       0xe0 ./Debug/src_ax32xx_osdcmp.c.o
                                 0xf4 (size before relaxing)
 .eh_frame      0x00014678      0x3dc ./Debug/osd_ax32xx_osd.c.o
                                0x3f0 (size before relaxing)
 .eh_frame      0x00014a54      0x374 ./Debug/csi_ax32xx_csi.c.o
                                0x388 (size before relaxing)
 .eh_frame      0x00014dc8      0x378 ./Debug/lcd_ax32xx_lcd.c.o
                                0x38c (size before relaxing)
 .eh_frame      0x00015140      0x4fc ./Debug/mjpeg_ax32xx_mjpeg.c.o
                                0x510 (size before relaxing)
 .eh_frame      0x0001563c       0x8c ./Debug/src_hal_adc.c.o
                                 0xa0 (size before relaxing)
 .eh_frame      0x000156c8       0x84 ./Debug/src_hal_csi.c.o
                                 0x98 (size before relaxing)
 .eh_frame      0x0001574c       0xe0 ./Debug/src_hal_dac.c.o
                                 0xf4 (size before relaxing)
 .eh_frame      0x0001582c      0x130 ./Debug/src_hal_gpio.c.o
                                0x144 (size before relaxing)
 .eh_frame      0x0001595c      0x2c4 ./Debug/src_hal_iic.c.o
                                0x2d8 (size before relaxing)
 .eh_frame      0x00015c20      0x468 ./Debug/src_hal_lcd.c.o
                                0x47c (size before relaxing)
 .eh_frame      0x00016088       0x68 ./Debug/src_hal_md.c.o
                                 0x7c (size before relaxing)
 .eh_frame      0x000160f0      0x1f0 ./Debug/src_hal_osd.c.o
                                0x204 (size before relaxing)
 .eh_frame      0x000162e0      0x25c ./Debug/src_hal_rtc.c.o
                                0x270 (size before relaxing)
 .eh_frame      0x0001653c      0x1e4 ./Debug/src_hal_sd.c.o
                                0x1f8 (size before relaxing)
 .eh_frame      0x00016720      0x204 ./Debug/src_hal_spi.c.o
                                0x218 (size before relaxing)
 .eh_frame      0x00016924       0x8c ./Debug/src_hal_timer.c.o
                                 0xa0 (size before relaxing)
 .eh_frame      0x000169b0      0x1b0 ./Debug/src_hal_uart.c.o
                                0x1c4 (size before relaxing)
 .eh_frame      0x00016b60      0x174 ./Debug/src_hal_watermark.c.o
                                0x188 (size before relaxing)
 .eh_frame      0x00016cd4       0xa4 ./Debug/src_hal_sys.c.o
                                 0xb8 (size before relaxing)
 .eh_frame      0x00016d78      0x3ac ./Debug/src_hal_auadc.c.o
                                0x3c0 (size before relaxing)
 .eh_frame      0x00017124      0x5a0 ./Debug/src_hal_mjpeg.c.o
                                0x5b4 (size before relaxing)
 .eh_frame      0x000176c4       0x1c ./Debug/src_hal_int.c.o
                                 0x30 (size before relaxing)
 .eh_frame      0x000176e0       0xbc ./Debug/src_hal_stream.c.o
                                 0xd0 (size before relaxing)
 .eh_frame      0x0001779c       0x6c ./Debug/src_hal_emi.c.o
                                 0x80 (size before relaxing)
 .eh_frame      0x00017808      0x380 ./Debug/src_hal_mjpegB.c.o
                                0x394 (size before relaxing)
 .eh_frame      0x00017b88       0x7c ./Debug/src_hal_osdcmp.c.o
                                 0x90 (size before relaxing)
 .eh_frame      0x00017c04       0x80 ./Debug/src_hal_rotate.c.o
                                 0x94 (size before relaxing)
 .eh_frame      0x00017c84       0xe0 ./Debug/src_hal_lcdframe.c.o
                                 0xf4 (size before relaxing)
 .eh_frame      0x00017d64      0x638 ./Debug/isp_hal_isp.c.o
                                0x64c (size before relaxing)
 .eh_frame      0x0001839c      0x1c8 ./Debug/dusb_hal_usb_api.c.o
                                0x1dc (size before relaxing)
 .eh_frame      0x00018564      0x368 ./Debug/dusb_hal_usb_dev_enum.c.o
                                0x37c (size before relaxing)
 .eh_frame      0x000188cc      0x400 ./Debug/dusb_hal_usb_msc.c.o
                                0x414 (size before relaxing)
 .eh_frame      0x00018ccc       0xac ./Debug/dusb_hal_usb_uac.c.o
                                 0xc0 (size before relaxing)
 .eh_frame      0x00018d78      0x1fc ./Debug/dusb_hal_usb_uvc.c.o
                                0x210 (size before relaxing)
 .eh_frame      0x00018f74      0x178 ./Debug/husb_hal_usb_host_api.c.o
                                0x18c (size before relaxing)
 .eh_frame      0x000190ec      0x1a0 ./Debug/husb_hal_usb_host_tpbulk.c.o
                                0x1b4 (size before relaxing)
 .eh_frame      0x0001928c      0x270 ./Debug/husb_hal_usb_host_uvc.c.o
                                0x284 (size before relaxing)
 .eh_frame      0x000194fc      0x244 ./Debug/husb_hal_usensor.c.o
                                0x258 (size before relaxing)
 .eh_frame      0x00019740      0x16c ./Debug/audio_audio_playback.c.o
                                0x180 (size before relaxing)
 .eh_frame      0x000198ac      0x14c ./Debug/audio_audio_record.c.o
                                0x160 (size before relaxing)
 .eh_frame      0x000199f8       0xa0 ./Debug/audio_ring_buffer.c.o
                                 0xb4 (size before relaxing)
 .eh_frame      0x00019a98      0x310 ./Debug/video_video_playback.c.o
                                0x324 (size before relaxing)
 .eh_frame      0x00019da8      0x328 ./Debug/video_video_record.c.o
                                0x33c (size before relaxing)
 .eh_frame      0x0001a0d0      0x1a4 ./Debug/video_video_record_B.c.o
                                0x1b8 (size before relaxing)
 .eh_frame      0x0001a274       0x78 ./Debug/image_image_decode.c.o
                                 0x8c (size before relaxing)
 .eh_frame      0x0001a2ec       0x80 ./Debug/image_image_encode.c.o
                                 0x94 (size before relaxing)
 .eh_frame      0x0001a36c       0x40 ./Debug/wav_pcm.c.o
                                 0x54 (size before relaxing)
 .eh_frame      0x0001a3ac      0x198 ./Debug/wav_wav.c.o
                                0x1ac (size before relaxing)
 .eh_frame      0x0001a544       0x44 ./Debug/stream_stream.c.o
                                 0x58 (size before relaxing)
 .eh_frame      0x0001a588       0x7c ./Debug/gsensor_G_gma301.c.o
                                 0x90 (size before relaxing)
 .eh_frame      0x0001a604      0x16c ./Debug/gsensor_gsensor.c.o
                                0x180 (size before relaxing)
 .eh_frame      0x0001a770       0x7c ./Debug/gsensor_G_sc7a30e.c.o
                                 0x90 (size before relaxing)
 .eh_frame      0x0001a7ec       0x80 ./Debug/gsensor_g_da380.c.o
                                 0x94 (size before relaxing)
 .eh_frame      0x0001a86c      0x1b8 ./Debug/cmos_sensor_cmos_sensor.c.o
                                0x1cc (size before relaxing)
 .eh_frame      0x0001aa24       0x5c ./Debug/cmos_sensor_SENSOR_H62.c.o
                                 0x70 (size before relaxing)
 .eh_frame      0x0001aa80       0x20 ./Debug/cmos_sensor_SENSOR_H65.c.o
                                 0x34 (size before relaxing)
 .eh_frame      0x0001aaa0       0x5c ./Debug/cmos_sensor_SENSOR_H63.c.o
                                 0x70 (size before relaxing)
 .eh_frame      0x0001aafc       0x54 ./Debug/cmos_sensor_SENSOR_H63P.c.o
                                 0x68 (size before relaxing)
 .eh_frame      0x0001ab50       0xf8 ./Debug/tft_lcd_tft_lcd.c.o
                                0x10c (size before relaxing)
 .eh_frame      0x0001ac48       0x34 ./Debug/usensor_237a_1.c.o
                                 0x48 (size before relaxing)
 .eh_frame      0x0001ac7c       0x4c ./Debug/usensor_237a_2.c.o
                                 0x60 (size before relaxing)
 .eh_frame      0x0001acc8       0xc8 ./Debug/nvfs_nvfs.c.o
                                 0xdc (size before relaxing)
 .eh_frame      0x0001ad90      0x15c ./Debug/Maxlib_max_user.c.o
                                0x170 (size before relaxing)
 .eh_frame      0x0001aeec      0x254 ./Debug/Maxlib_uiDraw.c.o
                                0x268 (size before relaxing)
 .eh_frame      0x0001b140       0x88 ./Debug/std_misc.c.o
                                 0x9c (size before relaxing)
 .eh_frame      0x0001b1c8       0x80 ./Debug/std_std_math.c.o
                                 0x94 (size before relaxing)
 .eh_frame      0x0001b248       0xac ./Debug/std_str.c.o
                                 0xc0 (size before relaxing)
 .eh_frame      0x0001b2f4       0x1c ./Debug/res_ascii.c.o
                                 0x30 (size before relaxing)
 .eh_frame      0x0001b310       0x1c ./Debug/res_ascii_default_draw.c.o
                                 0x30 (size before relaxing)
 .eh_frame      0x0001b32c       0x1c ./Debug/res_ascii_num2_draw.c.o
                                 0x30 (size before relaxing)
 .eh_frame      0x0001b348       0x1c ./Debug/res_ascii_num3_draw.c.o
                                 0x30 (size before relaxing)
 .eh_frame      0x0001b364       0x1c ./Debug/res_ascii_num4_draw.c.o
                                 0x30 (size before relaxing)
 .eh_frame      0x0001b380      0x174 ./Debug/res_R.c.o
                                0x188 (size before relaxing)
 .eh_frame      0x0001b4f4       0xf0 ./Debug/res_R_icon.c.o
                                0x104 (size before relaxing)
 .eh_frame      0x0001b5e4       0x90 ./Debug/res_R_string.c.o
                                 0xa4 (size before relaxing)
 .eh_frame      0x0001b674       0x1c ./Debug/res_ascii_num5_draw.c.o
                                 0x30 (size before relaxing)
 .eh_frame      0x0001b690      0x59c ../bwlib\libusbh.a(hal_usb_host_enum.o)
                                0x5b0 (size before relaxing)
 .eh_frame      0x0001bc2c      0x168 ../bwlib\libsd.a(ax32xx_sd.o)
                                0x17c (size before relaxing)
 .eh_frame      0x0001bd94      0x154 ../bwlib\libavi.a(aviEncoder.o)
                                0x168 (size before relaxing)
 .eh_frame      0x0001bee8       0xa4 ../bwlib\libavi.a(encoder_std.o)
                                 0xb8 (size before relaxing)
 .eh_frame      0x0001bf8c      0x13c ../bwlib\libavi.a(encoder_odml.o)
                                0x150 (size before relaxing)
 .eh_frame      0x0001c0c8      0x1b0 ../bwlib\libavi.a(aviDecoder.o)
                                0x1c4 (size before relaxing)
 .eh_frame      0x0001c278       0x90 ../bwlib\libavi.a(decoder_std.o)
                                 0xa4 (size before relaxing)
 .eh_frame      0x0001c308       0x98 ../bwlib\libavi.a(decoder_odml.o)
                                 0xac (size before relaxing)
 .eh_frame      0x0001c3a0      0x234 ../bwlib\libfs.a(fs.o)
                                0x248 (size before relaxing)
 .eh_frame      0x0001c5d4       0xc0 ../bwlib\libfs.a(diskio.o)
                                 0xd4 (size before relaxing)
 .eh_frame      0x0001c694      0x8a4 ../bwlib\libfs.a(ff.o)
                                0x8b8 (size before relaxing)
 .eh_frame      0x0001cf38       0x54 ../bwlib\libfs.a(ffunicode.o)
                                 0x68 (size before relaxing)
 .eh_frame      0x0001cf8c       0x2c C:/MinGW-4.7.1/lib/gcc/or1k-elf/4.9.1/no-delay\libgcc.a(_udivdi3.o)
                                 0x40 (size before relaxing)
                0x0000000f                _exception_len = ((SIZEOF (.exception) + 0x1ff) / 0x200)
                0x00000001                _exception_sec = (LOADADDR (.exception) / 0x200)
                0x00000010                _text_sec = (LOADADDR (.text) / 0x200)
                0x0000048c                _text_len = (((_text_end - _text_start) + 0x1ff) / 0x200)
                0x00000000                _before_load_len = ((SIZEOF (.before_load) + 0x1ff) / 0x200)
                0x0000049c                _before_load_sec = (LOADADDR (.before_load) / 0x200)
                0x00001400                __stack_size = 0x1400
                0x00689840                __sdram_remain_size = (((ORIGIN (sdram) + 0x800000) - _sdram_remian_addr) - __stack_size)
                0x00000001                ASSERT ((((ORIGIN (sdram) + 0x800000) - _sdram_remian_addr) >= __stack_size), No memroy for stack)
                0x027fec00                __bss_end = (_sdram_remian_addr + __sdram_remain_size)
                0x00093800                _lcd_resource_start_addr = LOADADDR (.lcd_resource)
                0x0000024c                _lcd_resource_size = (_res_lcd_struct_end - _res_lcd_struct_start)
                0x0009623c                _sensor_resource_start_addr = LOADADDR (.sensor_resource)
                0x00000140                _res_sensor_header_len = (_res_sensor_header_item_end - _res_sensor_header_item_start)
                0x027ffffc                PROVIDE (__stack, ((ORIGIN (sdram) + 0x800000) - 0x4))
OUTPUT(./Debug/ax329x_sdk.elf elf32-or1k)

.rela.dyn       0x0001cfb8        0x0 load address 0x000b31f4
 .rela.vector   0x00000000        0x0 ./Debug/ax32xx_reset.S.o
 .rela.bootsec  0x00000000        0x0 ./Debug/ax32xx_reset.S.o
 .rela.text     0x00000000        0x0 ./Debug/ax32xx_reset.S.o
 .rela.text.startup
                0x00000000        0x0 ./Debug/ax32xx_reset.S.o
 .rela.data     0x00000000        0x0 ./Debug/ax32xx_reset.S.o
 .rela.vector.text
                0x00000000        0x0 ./Debug/ax32xx_reset.S.o
 .rela.sensor_res.header
                0x00000000        0x0 ./Debug/ax32xx_reset.S.o
 .rela.lcd_res.header
                0x00000000        0x0 ./Debug/ax32xx_reset.S.o

.comment        0x00000000       0x11
 .comment       0x00000000       0x11 ./Debug/main.c.o
                                 0x12 (size before relaxing)
 .comment       0x00000000       0x12 ./Debug/resource_manager.c.o
 .comment       0x00000000       0x12 ./Debug/upgrade.c.o
 .comment       0x00000000       0x12 ./Debug/board.c.o
 .comment       0x00000000       0x12 ./Debug/board_bwv1.c.o
 .comment       0x00000000       0x12 ./Debug/config.c.o
 .comment       0x00000000       0x12 ./Debug/display.c.o
 .comment       0x00000000       0x12 ./Debug/explorer.c.o
 .comment       0x00000000       0x12 ./Debug/filelist.c.o
 .comment       0x00000000       0x12 ./Debug/font.c.o
 .comment       0x00000000       0x12 ./Debug/icon.c.o
 .comment       0x00000000       0x12 ./Debug/board_fpga.c.o
 .comment       0x00000000       0x12 ./Debug/configGetValue.c.o
 .comment       0x00000000       0x12 ./Debug/configSystem.c.o
 .comment       0x00000000       0x12 ./Debug/logo.c.o
 .comment       0x00000000       0x12 ./Debug/menuMovieRec.c.o
 .comment       0x00000000       0x12 ./Debug/menuPlayBack.c.o
 .comment       0x00000000       0x12 ./Debug/msgDeal.c.o
 .comment       0x00000000       0x12 ./Debug/msgSysRecommend.c.o
 .comment       0x00000000       0x12 ./Debug/msgSysUnshielded.c.o
 .comment       0x00000000       0x12 ./Debug/taskManage.c.o
 .comment       0x00000000       0x12 ./Debug/taskPhotoEncode.c.o
 .comment       0x00000000       0x12 ./Debug/taskPhotoEncodeMsg.c.o
 .comment       0x00000000       0x12 ./Debug/taskPlayBack.c.o
 .comment       0x00000000       0x12 ./Debug/taskPlayBackMsg.c.o
 .comment       0x00000000       0x12 ./Debug/taskPowerOff.c.o
 .comment       0x00000000       0x12 ./Debug/taskSysScanDevice.c.o
 .comment       0x00000000       0x12 ./Debug/taskUsbDevice.c.o
 .comment       0x00000000       0x12 ./Debug/taskVideoRecord.c.o
 .comment       0x00000000       0x12 ./Debug/taskVideoRecordMsg.c.o
 .comment       0x00000000       0x12 ./Debug/toolFunc.c.o
 .comment       0x00000000       0x12 ./Debug/uiAsternMsg.c.o
 .comment       0x00000000       0x12 ./Debug/uiMenuDateTimeMsg.c.o
 .comment       0x00000000       0x12 ./Debug/uiMenuDefaultMsg.c.o
 .comment       0x00000000       0x12 ./Debug/uiMenuDelAllMsg.c.o
 .comment       0x00000000       0x12 ./Debug/uiMenuDelCurMsg.c.o
 .comment       0x00000000       0x12 ./Debug/uiMenuFormatMsg.c.o
 .comment       0x00000000       0x12 ./Debug/uiMenuItemMsg.c.o
 .comment       0x00000000       0x12 ./Debug/uiMenuLockCurMsg.c.o
 .comment       0x00000000       0x12 ./Debug/uiMenuOptionMsg.c.o
 .comment       0x00000000       0x12 ./Debug/uiMenuUnlockAllMsg.c.o
 .comment       0x00000000       0x12 ./Debug/uiMenuUnlockCurMsg.c.o
 .comment       0x00000000       0x12 ./Debug/uiMenuUsbMsg.c.o
 .comment       0x00000000       0x12 ./Debug/uiNoFileMsg.c.o
 .comment       0x00000000       0x12 ./Debug/uiTips1Msg.c.o
 .comment       0x00000000       0x12 ./Debug/uiTipsMsg.c.o
 .comment       0x00000000       0x12 ./Debug/uiWin.c.o
 .comment       0x00000000       0x12 ./Debug/uiSelfTestMsg.c.o
 .comment       0x00000000       0x12 ./Debug/uiMenuVersionMsg.c.o
 .comment       0x00000000       0x12 ./Debug/taskAudioRecordMsg.c.o
 .comment       0x00000000       0x12 ./Debug/taskAudioRecord.c.o
 .comment       0x00000000       0x12 ./Debug/taskAudioPlay.c.o
 .comment       0x00000000       0x12 ./Debug/taskAudioPlaydMsg.c.o
 .comment       0x00000000       0x12 ./Debug/uiSelfClockMsg.c.o
 .comment       0x00000000       0x12 ./Debug/uiMenuDelAllMsg2.c.o
 .comment       0x00000000       0x12 ./Debug/uiMenuDelAllRes2.c.o
 .comment       0x00000000       0x12 ./Debug/uiMenuDelCurMsg2.c.o
 .comment       0x00000000       0x12 ./Debug/uiMenuDelCurRes2.c.o
 .comment       0x00000000       0x12 ./Debug/xos_x_cpu.c.o
 .comment       0x00000000       0x12 ./Debug/xos_xmbox.c.o
 .comment       0x00000000       0x12 ./Debug/xos_xmsgq.c.o
 .comment       0x00000000       0x12 ./Debug/xos_xos.c.o
 .comment       0x00000000       0x12 ./Debug/xos_xwork.c.o
 .comment       0x00000000       0x12 ./Debug/multimedia_user_media.c.o
 .comment       0x00000000       0x12 ./Debug/sUI_button.c.o
 .comment       0x00000000       0x12 ./Debug/sUI_dialog.c.o
 .comment       0x00000000       0x12 ./Debug/sUI_frameWin.c.o
 .comment       0x00000000       0x12 ./Debug/sUI_imageIcon.c.o
 .comment       0x00000000       0x12 ./Debug/sUI_itemManage.c.o
 .comment       0x00000000       0x12 ./Debug/sUI_menuItem.c.o
 .comment       0x00000000       0x12 ./Debug/sUI_menuItemEx.c.o
 .comment       0x00000000       0x12 ./Debug/sUI_menuOption.c.o
 .comment       0x00000000       0x12 ./Debug/sUI_progressBar.c.o
 .comment       0x00000000       0x12 ./Debug/sUI_rect.c.o
 .comment       0x00000000       0x12 ./Debug/sUI_stringIcon.c.o
 .comment       0x00000000       0x12 ./Debug/sUI_tips.c.o
 .comment       0x00000000       0x12 ./Debug/sUI_uiAlloc.c.o
 .comment       0x00000000       0x12 ./Debug/sUI_widget.c.o
 .comment       0x00000000       0x12 ./Debug/sUI_winManage.c.o
 .comment       0x00000000       0x12 ./Debug/sUI_memPool.c.o
 .comment       0x00000000       0x12 ./Debug/src_ax32xx_int.c.o
 .comment       0x00000000       0x12 ./Debug/src_ax32xx_sys.c.o
 .comment       0x00000000       0x12 ./Debug/src_ax32xx_dma.c.o
 .comment       0x00000000       0x12 ./Debug/src_ax32xx_wdt.c.o
 .comment       0x00000000       0x12 ./Debug/src_ax32xx_gpio.c.o
 .comment       0x00000000       0x12 ./Debug/src_ax32xx_uart.c.o
 .comment       0x00000000       0x12 ./Debug/src_ax32xx_timer.c.o
 .comment       0x00000000       0x12 ./Debug/src_ax32xx_tminf.c.o
 .comment       0x00000000       0x12 ./Debug/src_ax32xx_spi.c.o
 .comment       0x00000000       0x12 ./Debug/src_ax32xx_rtc.c.o
 .comment       0x00000000       0x12 ./Debug/src_ax32xx_md.c.o
 .comment       0x00000000       0x12 ./Debug/src_ax32xx_iic.c.o
 .comment       0x00000000       0x12 ./Debug/src_ax32xx_dac.c.o
 .comment       0x00000000       0x12 ./Debug/src_ax32xx_adc.c.o
 .comment       0x00000000       0x12 ./Debug/src_ax32xx_auadc.c.o
 .comment       0x00000000       0x12 ./Debug/src_ax32xx_isp.c.o
 .comment       0x00000000       0x12 ./Debug/src_jpeg_table.c.o
 .comment       0x00000000       0x12 ./Debug/src_isp_tab.c.o
 .comment       0x00000000       0x12 ./Debug/src_ax32xx_usb.c.o
 .comment       0x00000000       0x12 ./Debug/src_ax32xx_misc.c.o
 .comment       0x00000000       0x12 ./Debug/src_ax32xx_pip.c.o
 .comment       0x00000000       0x12 ./Debug/src_ax32xx_btuart.c.o
 .comment       0x00000000       0x12 ./Debug/src_ax32xx_crc.c.o
 .comment       0x00000000       0x12 ./Debug/src_ax32xx_emi.c.o
 .comment       0x00000000       0x12 ./Debug/src_ax32xx_rotate.c.o
 .comment       0x00000000       0x12 ./Debug/src_ax32xx_osdcmp.c.o
 .comment       0x00000000       0x12 ./Debug/osd_ax32xx_osd.c.o
 .comment       0x00000000       0x12 ./Debug/csi_ax32xx_csi.c.o
 .comment       0x00000000       0x12 ./Debug/lcd_ax32xx_lcd.c.o
 .comment       0x00000000       0x12 ./Debug/mjpeg_ax32xx_mjpeg.c.o
 .comment       0x00000000       0x12 ./Debug/resource_user_icon.c.o
 .comment       0x00000000       0x12 ./Debug/resource_user_str.c.o
 .comment       0x00000000       0x12 ./Debug/src_hal_adc.c.o
 .comment       0x00000000       0x12 ./Debug/src_hal_csi.c.o
 .comment       0x00000000       0x12 ./Debug/src_hal_dac.c.o
 .comment       0x00000000       0x12 ./Debug/src_hal_eeprom.c.o
 .comment       0x00000000       0x12 ./Debug/src_hal_gpio.c.o
 .comment       0x00000000       0x12 ./Debug/src_hal_iic.c.o
 .comment       0x00000000       0x12 ./Debug/src_hal_lcd.c.o
 .comment       0x00000000       0x12 ./Debug/src_hal_md.c.o
 .comment       0x00000000       0x12 ./Debug/src_hal_osd.c.o
 .comment       0x00000000       0x12 ./Debug/src_hal_rtc.c.o
 .comment       0x00000000       0x12 ./Debug/src_hal_sd.c.o
 .comment       0x00000000       0x12 ./Debug/src_hal_spi.c.o
 .comment       0x00000000       0x12 ./Debug/src_hal_timer.c.o
 .comment       0x00000000       0x12 ./Debug/src_hal_uart.c.o
 .comment       0x00000000       0x12 ./Debug/src_hal_watermark.c.o
 .comment       0x00000000       0x12 ./Debug/src_hal_sys.c.o
 .comment       0x00000000       0x12 ./Debug/src_hal_auadc.c.o
 .comment       0x00000000       0x12 ./Debug/src_hal_mjpeg.c.o
 .comment       0x00000000       0x12 ./Debug/src_hal_int.c.o
 .comment       0x00000000       0x12 ./Debug/src_hal_wdt.c.o
 .comment       0x00000000       0x12 ./Debug/src_hal_stream.c.o
 .comment       0x00000000       0x12 ./Debug/src_hal_emi.c.o
 .comment       0x00000000       0x12 ./Debug/src_hal_mjpegB.c.o
 .comment       0x00000000       0x12 ./Debug/src_hal_osdcmp.c.o
 .comment       0x00000000       0x12 ./Debug/src_hal_rotate.c.o
 .comment       0x00000000       0x12 ./Debug/src_hal_lcdframe.c.o
 .comment       0x00000000       0x12 ./Debug/isp_hal_isp.c.o
 .comment       0x00000000       0x12 ./Debug/dusb_hal_usb_api.c.o
 .comment       0x00000000       0x12 ./Debug/dusb_hal_usb_dev_enum.c.o
 .comment       0x00000000       0x12 ./Debug/dusb_hal_usb_msc.c.o
 .comment       0x00000000       0x12 ./Debug/dusb_hal_usb_uac.c.o
 .comment       0x00000000       0x12 ./Debug/dusb_hal_usb_uvc.c.o
 .comment       0x00000000       0x12 ./Debug/husb_hal_usb_host_api.c.o
 .comment       0x00000000       0x12 ./Debug/husb_hal_usb_host_tpbulk.c.o
 .comment       0x00000000       0x12 ./Debug/husb_hal_usb_host_uvc.c.o
 .comment       0x00000000       0x12 ./Debug/husb_hal_usensor.c.o
 .comment       0x00000000       0x12 ./Debug/audio_audio_playback.c.o
 .comment       0x00000000       0x12 ./Debug/audio_audio_record.c.o
 .comment       0x00000000       0x12 ./Debug/audio_ring_buffer.c.o
 .comment       0x00000000       0x12 ./Debug/video_video_playback.c.o
 .comment       0x00000000       0x12 ./Debug/video_video_record.c.o
 .comment       0x00000000       0x12 ./Debug/video_video_record_B.c.o
 .comment       0x00000000       0x12 ./Debug/image_image_decode.c.o
 .comment       0x00000000       0x12 ./Debug/image_image_encode.c.o
 .comment       0x00000000       0x12 ./Debug/wav_alaw.c.o
 .comment       0x00000000       0x12 ./Debug/wav_imaadpcm.c.o
 .comment       0x00000000       0x12 ./Debug/wav_pcm.c.o
 .comment       0x00000000       0x12 ./Debug/wav_ulaw.c.o
 .comment       0x00000000       0x12 ./Debug/wav_wav.c.o
 .comment       0x00000000       0x12 ./Debug/stream_stream.c.o
 .comment       0x00000000       0x12 ./Debug/gsensor_G_gma301.c.o
 .comment       0x00000000       0x12 ./Debug/gsensor_gsensor.c.o
 .comment       0x00000000       0x12 ./Debug/gsensor_G_sc7a30e.c.o
 .comment       0x00000000       0x12 ./Debug/gsensor_g_da380.c.o
 .comment       0x00000000       0x12 ./Debug/cmos_sensor_cmos_sensor.c.o
 .comment       0x00000000       0x12 ./Debug/cmos_sensor_SENSOR_BF3a03.c.o
 .comment       0x00000000       0x12 ./Debug/cmos_sensor_SENSOR_BF2013.c.o
 .comment       0x00000000       0x12 ./Debug/cmos_sensor_SENSOR_BF3016.c.o
 .comment       0x00000000       0x12 ./Debug/cmos_sensor_SENSOR_BF3703.c.o
 .comment       0x00000000       0x12 ./Debug/cmos_sensor_SENSOR_GC0307.c.o
 .comment       0x00000000       0x12 ./Debug/cmos_sensor_SENSOR_GC0308.c.o
 .comment       0x00000000       0x12 ./Debug/cmos_sensor_SENSOR_GC0309.c.o
 .comment       0x00000000       0x12 ./Debug/cmos_sensor_SENSOR_GC0328.c.o
 .comment       0x00000000       0x12 ./Debug/cmos_sensor_SENSOR_GC1004.c.o
 .comment       0x00000000       0x12 ./Debug/cmos_sensor_SENSOR_H42.c.o
 .comment       0x00000000       0x12 ./Debug/cmos_sensor_SENSOR_H7640.c.o
 .comment       0x00000000       0x12 ./Debug/cmos_sensor_SENSOR_HM1055.c.o
 .comment       0x00000000       0x12 ./Debug/cmos_sensor_SENSOR_IT03A1.c.o
 .comment       0x00000000       0x12 ./Debug/cmos_sensor_SENSOR_NT99141.c.o
 .comment       0x00000000       0x12 ./Debug/cmos_sensor_SENSOR_NT99142.c.o
 .comment       0x00000000       0x12 ./Debug/cmos_sensor_SENSOR_OV7670.c.o
 .comment       0x00000000       0x12 ./Debug/cmos_sensor_SENSOR_OV7725.c.o
 .comment       0x00000000       0x12 ./Debug/cmos_sensor_SENSOR_OV9710.c.o
 .comment       0x00000000       0x12 ./Debug/cmos_sensor_SENSOR_OV9732.c.o
 .comment       0x00000000       0x12 ./Debug/cmos_sensor_SENSOR_SC1045.c.o
 .comment       0x00000000       0x12 ./Debug/cmos_sensor_SENSOR_SIV100B.c.o
 .comment       0x00000000       0x12 ./Debug/cmos_sensor_SENSOR_SIV120B.c.o
 .comment       0x00000000       0x12 ./Debug/cmos_sensor_SENSOR_SIV121DS.c.o
 .comment       0x00000000       0x12 ./Debug/cmos_sensor_SENSOR_SP1409.c.o
 .comment       0x00000000       0x12 ./Debug/cmos_sensor_SENSOR_H62.c.o
 .comment       0x00000000       0x12 ./Debug/cmos_sensor_SENSOR_GC1034.c.o
 .comment       0x00000000       0x12 ./Debug/cmos_sensor_SENSOR_OV7736.c.o
 .comment       0x00000000       0x12 ./Debug/cmos_sensor_SENSOR_SP140A.c.o
 .comment       0x00000000       0x12 ./Debug/cmos_sensor_SENSOR_GC1054.c.o
 .comment       0x00000000       0x12 ./Debug/cmos_sensor_SENSOR_GC1064.c.o
 .comment       0x00000000       0x12 ./Debug/cmos_sensor_SENSOR_H65.c.o
 .comment       0x00000000       0x12 ./Debug/cmos_sensor_SENSOR_SC1243.c.o
 .comment       0x00000000       0x12 ./Debug/cmos_sensor_SENSOR_H63.c.o
 .comment       0x00000000       0x12 ./Debug/cmos_sensor_SENSOR_H63P.c.o
 .comment       0x00000000       0x12 ./Debug/tft_lcd_lcd_mcu_st7789.c.o
 .comment       0x00000000       0x12 ./Debug/tft_lcd_lcd_rgb_jl_lcd.c.o
 .comment       0x00000000       0x12 ./Debug/tft_lcd_lcd_rgb_st7282.c.o
 .comment       0x00000000       0x12 ./Debug/tft_lcd_tft_lcd.c.o
 .comment       0x00000000       0x12 ./Debug/tft_lcd_lcd_mcu_5420.c.o
 .comment       0x00000000       0x12 ./Debug/tft_lcd_lcd_mcu_r61509v.c.o
 .comment       0x00000000       0x12 ./Debug/tft_lcd_lcd_rgb_ili8961.c.o
 .comment       0x00000000       0x12 ./Debug/tft_lcd_lcd_rgb_ili9342c.c.o
 .comment       0x00000000       0x12 ./Debug/tft_lcd_lcd_mcu_ili9328.c.o
 .comment       0x00000000       0x12 ./Debug/tft_lcd_lcd_mcu_hx8352b.c.o
 .comment       0x00000000       0x12 ./Debug/tft_lcd_lcd_mcu_st7789v.c.o
 .comment       0x00000000       0x12 ./Debug/tft_lcd_lcd_mcu_hx8352c.c.o
 .comment       0x00000000       0x12 ./Debug/tft_lcd_lcd_mcu_hx8357b.c.o
 .comment       0x00000000       0x12 ./Debug/tft_lcd_lcd_rgb_ili9806e.c.o
 .comment       0x00000000       0x12 ./Debug/tft_lcd_lcd_rgb_ota5182.c.o
 .comment       0x00000000       0x12 ./Debug/tft_lcd_lcd_rgb_st7701.c.o
 .comment       0x00000000       0x12 ./Debug/tft_lcd_lcd_mcu_lgdp4532.c.o
 .comment       0x00000000       0x12 ./Debug/tft_lcd_lcd_mcu_9225G.c.o
 .comment       0x00000000       0x12 ./Debug/tft_lcd_lcd_mcu_st7789v2.c.o
 .comment       0x00000000       0x12 ./Debug/tft_lcd_lcd_mcu_gc9307.c.o
 .comment       0x00000000       0x12 ./Debug/usensor_237a_1.c.o
 .comment       0x00000000       0x12 ./Debug/usensor_usensor.c.o
 .comment       0x00000000       0x12 ./Debug/usensor_237a_2.c.o
 .comment       0x00000000       0x12 ./Debug/nvfs_nvfs.c.o
 .comment       0x00000000       0x12 ./Debug/Maxlib_max_user.c.o
 .comment       0x00000000       0x12 ./Debug/Maxlib_uiDraw.c.o
 .comment       0x00000000       0x12 ./Debug/std_misc.c.o
 .comment       0x00000000       0x12 ./Debug/std_std_math.c.o
 .comment       0x00000000       0x12 ./Debug/std_str.c.o
 .comment       0x00000000       0x12 ./Debug/res_ascii.c.o
 .comment       0x00000000       0x12 ./Debug/res_ascii_default.c.o
 .comment       0x00000000       0x12 ./Debug/res_ascii_default_draw.c.o
 .comment       0x00000000       0x12 ./Debug/res_ascii_num2.c.o
 .comment       0x00000000       0x12 ./Debug/res_ascii_num2_draw.c.o
 .comment       0x00000000       0x12 ./Debug/res_ascii_num3.c.o
 .comment       0x00000000       0x12 ./Debug/res_ascii_num3_draw.c.o
 .comment       0x00000000       0x12 ./Debug/res_ascii_num4.c.o
 .comment       0x00000000       0x12 ./Debug/res_ascii_num4_draw.c.o
 .comment       0x00000000       0x12 ./Debug/res_R.c.o
 .comment       0x00000000       0x12 ./Debug/res_R_icon.c.o
 .comment       0x00000000       0x12 ./Debug/res_R_string.c.o
 .comment       0x00000000       0x12 ./Debug/res_ascii_num5.c.o
 .comment       0x00000000       0x12 ./Debug/res_ascii_num5_draw.c.o
 .comment       0x00000000       0x12 ../bwlib\libusbh.a(hal_usb_host_enum.o)
 .comment       0x00000000       0x12 ../bwlib\libsd.a(ax32xx_sd.o)
 .comment       0x00000000       0x12 ../bwlib\libavi.a(aviEncoder.o)
 .comment       0x00000000       0x12 ../bwlib\libavi.a(encoder_std.o)
 .comment       0x00000000       0x12 ../bwlib\libavi.a(encoder_odml.o)
 .comment       0x00000000       0x12 ../bwlib\libavi.a(aviDecoder.o)
 .comment       0x00000000       0x12 ../bwlib\libavi.a(decoder_std.o)
 .comment       0x00000000       0x12 ../bwlib\libavi.a(decoder_odml.o)
 .comment       0x00000000       0x12 ../bwlib\libfs.a(fs.o)
 .comment       0x00000000       0x12 ../bwlib\libfs.a(diskio.o)
 .comment       0x00000000       0x12 ../bwlib\libfs.a(ff.o)
 .comment       0x00000000       0x12 ../bwlib\libfs.a(ffunicode.o)
 .comment       0x00000000       0x12 C:/MinGW-4.7.1/or1k-elf/lib/no-delay\libc.a(lib_a-memcpy.o)
 .comment       0x00000000       0x12 C:/MinGW-4.7.1/or1k-elf/lib/no-delay\libc.a(lib_a-memset.o)
 .comment       0x00000000       0x12 C:/MinGW-4.7.1/or1k-elf/lib/no-delay\libc.a(lib_a-strcat.o)
 .comment       0x00000000       0x12 C:/MinGW-4.7.1/or1k-elf/lib/no-delay\libc.a(lib_a-strcmp.o)
 .comment       0x00000000       0x12 C:/MinGW-4.7.1/or1k-elf/lib/no-delay\libc.a(lib_a-strcpy.o)
 .comment       0x00000000       0x12 C:/MinGW-4.7.1/or1k-elf/lib/no-delay\libc.a(lib_a-strlen.o)
 .comment       0x00000000       0x12 C:/MinGW-4.7.1/or1k-elf/lib/no-delay\libc.a(lib_a-strncmp.o)
 .comment       0x00000000       0x12 C:/MinGW-4.7.1/or1k-elf/lib/no-delay\libc.a(lib_a-strncpy.o)
 .comment       0x00000000       0x12 C:/MinGW-4.7.1/lib/gcc/or1k-elf/4.9.1/no-delay\libgcc.a(_udivdi3.o)
 .comment       0x00000000       0x12 C:/MinGW-4.7.1/lib/gcc/or1k-elf/4.9.1/no-delay\libgcc.a(_clz.o)

.debug_info     0x00000000     0x1012
 .debug_info    0x00000000      0x131 C:/MinGW-4.7.1/or1k-elf/lib/no-delay\libc.a(lib_a-memcpy.o)
 .debug_info    0x00000131      0x117 C:/MinGW-4.7.1/or1k-elf/lib/no-delay\libc.a(lib_a-memset.o)
 .debug_info    0x00000248      0x110 C:/MinGW-4.7.1/or1k-elf/lib/no-delay\libc.a(lib_a-strcat.o)
 .debug_info    0x00000358       0xdd C:/MinGW-4.7.1/or1k-elf/lib/no-delay\libc.a(lib_a-strcmp.o)
 .debug_info    0x00000435      0x10e C:/MinGW-4.7.1/or1k-elf/lib/no-delay\libc.a(lib_a-strcpy.o)
 .debug_info    0x00000543       0xdb C:/MinGW-4.7.1/or1k-elf/lib/no-delay\libc.a(lib_a-strlen.o)
 .debug_info    0x0000061e       0xf5 C:/MinGW-4.7.1/or1k-elf/lib/no-delay\libc.a(lib_a-strncmp.o)
 .debug_info    0x00000713      0x128 C:/MinGW-4.7.1/or1k-elf/lib/no-delay\libc.a(lib_a-strncpy.o)
 .debug_info    0x0000083b      0x71e C:/MinGW-4.7.1/lib/gcc/or1k-elf/4.9.1/no-delay\libgcc.a(_udivdi3.o)
 .debug_info    0x00000f59       0xb9 C:/MinGW-4.7.1/lib/gcc/or1k-elf/4.9.1/no-delay\libgcc.a(_clz.o)

.debug_abbrev   0x00000000      0x680
 .debug_abbrev  0x00000000       0xab C:/MinGW-4.7.1/or1k-elf/lib/no-delay\libc.a(lib_a-memcpy.o)
 .debug_abbrev  0x000000ab       0x9f C:/MinGW-4.7.1/or1k-elf/lib/no-delay\libc.a(lib_a-memset.o)
 .debug_abbrev  0x0000014a       0xb3 C:/MinGW-4.7.1/or1k-elf/lib/no-delay\libc.a(lib_a-strcat.o)
 .debug_abbrev  0x000001fd       0x74 C:/MinGW-4.7.1/or1k-elf/lib/no-delay\libc.a(lib_a-strcmp.o)
 .debug_abbrev  0x00000271       0x92 C:/MinGW-4.7.1/or1k-elf/lib/no-delay\libc.a(lib_a-strcpy.o)
 .debug_abbrev  0x00000303       0x90 C:/MinGW-4.7.1/or1k-elf/lib/no-delay\libc.a(lib_a-strlen.o)
 .debug_abbrev  0x00000393       0x81 C:/MinGW-4.7.1/or1k-elf/lib/no-delay\libc.a(lib_a-strncmp.o)
 .debug_abbrev  0x00000414       0x9f C:/MinGW-4.7.1/or1k-elf/lib/no-delay\libc.a(lib_a-strncpy.o)
 .debug_abbrev  0x000004b3      0x170 C:/MinGW-4.7.1/lib/gcc/or1k-elf/4.9.1/no-delay\libgcc.a(_udivdi3.o)
 .debug_abbrev  0x00000623       0x5d C:/MinGW-4.7.1/lib/gcc/or1k-elf/4.9.1/no-delay\libgcc.a(_clz.o)

.debug_loc      0x00000000     0x1e4b
 .debug_loc     0x00000000      0x2ed C:/MinGW-4.7.1/or1k-elf/lib/no-delay\libc.a(lib_a-memcpy.o)
 .debug_loc     0x000002ed      0x1ba C:/MinGW-4.7.1/or1k-elf/lib/no-delay\libc.a(lib_a-memset.o)
 .debug_loc     0x000004a7       0x9c C:/MinGW-4.7.1/or1k-elf/lib/no-delay\libc.a(lib_a-strcat.o)
 .debug_loc     0x00000543       0xb0 C:/MinGW-4.7.1/or1k-elf/lib/no-delay\libc.a(lib_a-strcmp.o)
 .debug_loc     0x000005f3       0xc7 C:/MinGW-4.7.1/or1k-elf/lib/no-delay\libc.a(lib_a-strcpy.o)
 .debug_loc     0x000006ba       0x47 C:/MinGW-4.7.1/or1k-elf/lib/no-delay\libc.a(lib_a-strlen.o)
 .debug_loc     0x00000701       0xce C:/MinGW-4.7.1/or1k-elf/lib/no-delay\libc.a(lib_a-strncmp.o)
 .debug_loc     0x000007cf      0x1ba C:/MinGW-4.7.1/or1k-elf/lib/no-delay\libc.a(lib_a-strncpy.o)
 .debug_loc     0x00000989     0x14c2 C:/MinGW-4.7.1/lib/gcc/or1k-elf/4.9.1/no-delay\libgcc.a(_udivdi3.o)

.debug_aranges  0x00000000      0x138
 .debug_aranges
                0x00000000       0x20 C:/MinGW-4.7.1/or1k-elf/lib/no-delay\libc.a(lib_a-memcpy.o)
 .debug_aranges
                0x00000020       0x20 C:/MinGW-4.7.1/or1k-elf/lib/no-delay\libc.a(lib_a-memset.o)
 .debug_aranges
                0x00000040       0x20 C:/MinGW-4.7.1/or1k-elf/lib/no-delay\libc.a(lib_a-strcat.o)
 .debug_aranges
                0x00000060       0x20 C:/MinGW-4.7.1/or1k-elf/lib/no-delay\libc.a(lib_a-strcmp.o)
 .debug_aranges
                0x00000080       0x20 C:/MinGW-4.7.1/or1k-elf/lib/no-delay\libc.a(lib_a-strcpy.o)
 .debug_aranges
                0x000000a0       0x20 C:/MinGW-4.7.1/or1k-elf/lib/no-delay\libc.a(lib_a-strlen.o)
 .debug_aranges
                0x000000c0       0x20 C:/MinGW-4.7.1/or1k-elf/lib/no-delay\libc.a(lib_a-strncmp.o)
 .debug_aranges
                0x000000e0       0x20 C:/MinGW-4.7.1/or1k-elf/lib/no-delay\libc.a(lib_a-strncpy.o)
 .debug_aranges
                0x00000100       0x20 C:/MinGW-4.7.1/lib/gcc/or1k-elf/4.9.1/no-delay\libgcc.a(_udivdi3.o)
 .debug_aranges
                0x00000120       0x18 C:/MinGW-4.7.1/lib/gcc/or1k-elf/4.9.1/no-delay\libgcc.a(_clz.o)

.debug_line     0x00000000      0xa6b
 .debug_line    0x00000000      0x132 C:/MinGW-4.7.1/or1k-elf/lib/no-delay\libc.a(lib_a-memcpy.o)
 .debug_line    0x00000132      0x13b C:/MinGW-4.7.1/or1k-elf/lib/no-delay\libc.a(lib_a-memset.o)
 .debug_line    0x0000026d       0xd2 C:/MinGW-4.7.1/or1k-elf/lib/no-delay\libc.a(lib_a-strcat.o)
 .debug_line    0x0000033f       0xec C:/MinGW-4.7.1/or1k-elf/lib/no-delay\libc.a(lib_a-strcmp.o)
 .debug_line    0x0000042b       0xdb C:/MinGW-4.7.1/or1k-elf/lib/no-delay\libc.a(lib_a-strcpy.o)
 .debug_line    0x00000506      0x11f C:/MinGW-4.7.1/or1k-elf/lib/no-delay\libc.a(lib_a-strlen.o)
 .debug_line    0x00000625      0x16c C:/MinGW-4.7.1/or1k-elf/lib/no-delay\libc.a(lib_a-strncmp.o)
 .debug_line    0x00000791      0x139 C:/MinGW-4.7.1/or1k-elf/lib/no-delay\libc.a(lib_a-strncpy.o)
 .debug_line    0x000008ca      0x145 C:/MinGW-4.7.1/lib/gcc/or1k-elf/4.9.1/no-delay\libgcc.a(_udivdi3.o)
 .debug_line    0x00000a0f       0x5c C:/MinGW-4.7.1/lib/gcc/or1k-elf/4.9.1/no-delay\libgcc.a(_clz.o)

.debug_str      0x00000000      0x5a8
 .debug_str     0x00000000      0x14f C:/MinGW-4.7.1/or1k-elf/lib/no-delay\libc.a(lib_a-memcpy.o)
                                0x188 (size before relaxing)
 .debug_str     0x0000014f       0x5e C:/MinGW-4.7.1/or1k-elf/lib/no-delay\libc.a(lib_a-memset.o)
                                0x175 (size before relaxing)
 .debug_str     0x000001ad       0x5c C:/MinGW-4.7.1/or1k-elf/lib/no-delay\libc.a(lib_a-strcat.o)
                                0x16c (size before relaxing)
 .debug_str     0x00000209       0x4a C:/MinGW-4.7.1/or1k-elf/lib/no-delay\libc.a(lib_a-strcmp.o)
                                0x15a (size before relaxing)
 .debug_str     0x00000253       0x43 C:/MinGW-4.7.1/or1k-elf/lib/no-delay\libc.a(lib_a-strcpy.o)
                                0x17c (size before relaxing)
 .debug_str     0x00000296       0x50 C:/MinGW-4.7.1/or1k-elf/lib/no-delay\libc.a(lib_a-strlen.o)
                                0x174 (size before relaxing)
 .debug_str     0x000002e6       0x4c C:/MinGW-4.7.1/or1k-elf/lib/no-delay\libc.a(lib_a-strncmp.o)
                                0x163 (size before relaxing)
 .debug_str     0x00000332       0x52 C:/MinGW-4.7.1/or1k-elf/lib/no-delay\libc.a(lib_a-strncpy.o)
                                0x18b (size before relaxing)
 .debug_str     0x00000384      0x1b4 C:/MinGW-4.7.1/lib/gcc/or1k-elf/4.9.1/no-delay\libgcc.a(_udivdi3.o)
                                0x25c (size before relaxing)
 .debug_str     0x00000538       0x70 C:/MinGW-4.7.1/lib/gcc/or1k-elf/4.9.1/no-delay\libgcc.a(_clz.o)
                                0x1a3 (size before relaxing)

.debug_frame    0x00000000      0x144
 .debug_frame   0x00000000       0x28 C:/MinGW-4.7.1/or1k-elf/lib/no-delay\libc.a(lib_a-memcpy.o)
 .debug_frame   0x00000028       0x28 C:/MinGW-4.7.1/or1k-elf/lib/no-delay\libc.a(lib_a-memset.o)
 .debug_frame   0x00000050       0x2c C:/MinGW-4.7.1/or1k-elf/lib/no-delay\libc.a(lib_a-strcat.o)
 .debug_frame   0x0000007c       0x28 C:/MinGW-4.7.1/or1k-elf/lib/no-delay\libc.a(lib_a-strcmp.o)
 .debug_frame   0x000000a4       0x28 C:/MinGW-4.7.1/or1k-elf/lib/no-delay\libc.a(lib_a-strcpy.o)
 .debug_frame   0x000000cc       0x28 C:/MinGW-4.7.1/or1k-elf/lib/no-delay\libc.a(lib_a-strlen.o)
 .debug_frame   0x000000f4       0x28 C:/MinGW-4.7.1/or1k-elf/lib/no-delay\libc.a(lib_a-strncmp.o)
 .debug_frame   0x0000011c       0x28 C:/MinGW-4.7.1/or1k-elf/lib/no-delay\libc.a(lib_a-strncpy.o)

.debug_ranges   0x00000000      0x180
 .debug_ranges  0x00000000      0x180 C:/MinGW-4.7.1/lib/gcc/or1k-elf/4.9.1/no-delay\libgcc.a(_udivdi3.o)
